
ElecHeatsoftware.elf:     file format elf32-avr

Sections:
Idx Name          Size      VMA       LMA       File off  Algn
  0 .text         00001030  00000000  00000000  00000074  2**1
                  CONTENTS, ALLOC, LOAD, READONLY, CODE
  1 .data         00000000  00800060  00800060  000010a4  2**0
                  CONTENTS, ALLOC, LOAD, DATA
  2 .bss          0000001b  00800060  00800060  000010a4  2**0
                  ALLOC
  3 .comment      00000030  00000000  00000000  000010a4  2**0
                  CONTENTS, READONLY
  4 .note.gnu.avr.deviceinfo 0000003c  00000000  00000000  000010d4  2**2
                  CONTENTS, READONLY
  5 .debug_aranges 00000110  00000000  00000000  00001110  2**0
                  CONTENTS, READONLY, DEBUGGING
  6 .debug_info   00000f43  00000000  00000000  00001220  2**0
                  CONTENTS, READONLY, DEBUGGING
  7 .debug_abbrev 00000841  00000000  00000000  00002163  2**0
                  CONTENTS, READONLY, DEBUGGING
  8 .debug_line   00000a46  00000000  00000000  000029a4  2**0
                  CONTENTS, READONLY, DEBUGGING
  9 .debug_frame  00000254  00000000  00000000  000033ec  2**2
                  CONTENTS, READONLY, DEBUGGING
 10 .debug_str    000005c7  00000000  00000000  00003640  2**0
                  CONTENTS, READONLY, DEBUGGING
 11 .debug_loc    000003bc  00000000  00000000  00003c07  2**0
                  CONTENTS, READONLY, DEBUGGING
 12 .debug_ranges 000000f0  00000000  00000000  00003fc3  2**0
                  CONTENTS, READONLY, DEBUGGING

Disassembly of section .text:

00000000 <__vectors>:
       0:	0c 94 7d 00 	jmp	0xfa	; 0xfa <__ctors_end>
       4:	0c 94 8f 00 	jmp	0x11e	; 0x11e <__bad_interrupt>
       8:	0c 94 8f 00 	jmp	0x11e	; 0x11e <__bad_interrupt>
       c:	0c 94 8f 00 	jmp	0x11e	; 0x11e <__bad_interrupt>
      10:	0c 94 8f 00 	jmp	0x11e	; 0x11e <__bad_interrupt>
      14:	0c 94 8f 00 	jmp	0x11e	; 0x11e <__bad_interrupt>
      18:	0c 94 8f 00 	jmp	0x11e	; 0x11e <__bad_interrupt>
      1c:	0c 94 8f 00 	jmp	0x11e	; 0x11e <__bad_interrupt>
      20:	0c 94 fb 03 	jmp	0x7f6	; 0x7f6 <__vector_8>
      24:	0c 94 8f 00 	jmp	0x11e	; 0x11e <__bad_interrupt>
      28:	0c 94 8f 00 	jmp	0x11e	; 0x11e <__bad_interrupt>
      2c:	0c 94 8f 00 	jmp	0x11e	; 0x11e <__bad_interrupt>
      30:	0c 94 8f 00 	jmp	0x11e	; 0x11e <__bad_interrupt>
      34:	0c 94 8f 00 	jmp	0x11e	; 0x11e <__bad_interrupt>
      38:	0c 94 8f 00 	jmp	0x11e	; 0x11e <__bad_interrupt>
      3c:	0c 94 8f 00 	jmp	0x11e	; 0x11e <__bad_interrupt>
      40:	0c 94 8f 00 	jmp	0x11e	; 0x11e <__bad_interrupt>
      44:	0c 94 8f 00 	jmp	0x11e	; 0x11e <__bad_interrupt>
      48:	0c 94 8f 00 	jmp	0x11e	; 0x11e <__bad_interrupt>
      4c:	0c 94 8f 00 	jmp	0x11e	; 0x11e <__bad_interrupt>
      50:	0c 94 8f 00 	jmp	0x11e	; 0x11e <__bad_interrupt>
      54:	1d 02       	muls	r17, r29
      56:	14 02       	muls	r17, r20
      58:	02 02       	muls	r16, r18
      5a:	f0 01       	movw	r30, r0
      5c:	de 01       	movw	r26, r28
      5e:	0b 02       	muls	r16, r27
      60:	d5 01       	movw	r26, r10
      62:	e7 01       	movw	r28, r14
      64:	f9 01       	movw	r30, r18
      66:	60 03       	mulsu	r22, r16
      68:	5d 03       	fmul	r21, r21
      6a:	57 03       	mulsu	r21, r23
      6c:	51 03       	mulsu	r21, r17
      6e:	4b 03       	fmul	r20, r19
      70:	5a 03       	fmul	r21, r18
      72:	48 03       	fmul	r20, r16
      74:	4e 03       	fmul	r20, r22
      76:	54 03       	mulsu	r21, r20
      78:	07 63       	ori	r16, 0x37	; 55
      7a:	42 36       	cpi	r20, 0x62	; 98
      7c:	b7 9b       	sbis	0x16, 7	; 22
      7e:	d8 a7       	std	Y+40, r29	; 0x28
      80:	1a 39       	cpi	r17, 0x9A	; 154
      82:	68 56       	subi	r22, 0x68	; 104
      84:	18 ae       	std	Y+56, r1	; 0x38
      86:	ba ab       	std	Y+50, r27	; 0x32
      88:	55 8c       	ldd	r5, Z+29	; 0x1d
      8a:	1d 3c       	cpi	r17, 0xCD	; 205
      8c:	b7 cc       	rjmp	.-1682   	; 0xfffff9fc <__eeprom_end+0xff7ef9fc>
      8e:	57 63       	ori	r21, 0x37	; 55
      90:	bd 6d       	ori	r27, 0xDD	; 221
      92:	ed fd       	.word	0xfded	; ????
      94:	75 3e       	cpi	r23, 0xE5	; 229
      96:	f6 17       	cp	r31, r22
      98:	72 31       	cpi	r23, 0x12	; 18
      9a:	bf 00       	.word	0x00bf	; ????
      9c:	00 00       	nop
      9e:	80 3f       	cpi	r24, 0xF0	; 240
      a0:	08 00       	.word	0x0008	; ????
      a2:	00 00       	nop
      a4:	be 92       	st	-X, r11
      a6:	24 49       	sbci	r18, 0x94	; 148
      a8:	12 3e       	cpi	r17, 0xE2	; 226
      aa:	ab aa       	std	Y+51, r10	; 0x33
      ac:	aa 2a       	or	r10, r26
      ae:	be cd       	rjmp	.-1156   	; 0xfffffc2c <__eeprom_end+0xff7efc2c>
      b0:	cc cc       	rjmp	.-1640   	; 0xfffffa4a <__eeprom_end+0xff7efa4a>
      b2:	4c 3e       	cpi	r20, 0xEC	; 236
      b4:	00 00       	nop
      b6:	00 80       	ld	r0, Z
      b8:	be ab       	std	Y+54, r27	; 0x36
      ba:	aa aa       	std	Y+50, r10	; 0x32
      bc:	aa 3e       	cpi	r26, 0xEA	; 234
      be:	00 00       	nop
      c0:	00 00       	nop
      c2:	bf 00       	.word	0x00bf	; ????
      c4:	00 00       	nop
      c6:	80 3f       	cpi	r24, 0xF0	; 240
      c8:	00 00       	nop
      ca:	00 00       	nop
      cc:	00 08       	sbc	r0, r0
      ce:	41 78       	andi	r20, 0x81	; 129
      d0:	d3 bb       	out	0x13, r29	; 19
      d2:	43 87       	std	Z+11, r20	; 0x0b
      d4:	d1 13       	cpse	r29, r17
      d6:	3d 19       	sub	r19, r13
      d8:	0e 3c       	cpi	r16, 0xCE	; 206
      da:	c3 bd       	out	0x23, r28	; 35
      dc:	42 82       	std	Z+2, r4	; 0x02
      de:	ad 2b       	or	r26, r29
      e0:	3e 68       	ori	r19, 0x8E	; 142
      e2:	ec 82       	std	Y+4, r14	; 0x04
      e4:	76 be       	out	0x36, r7	; 54
      e6:	d9 8f       	std	Y+25, r29	; 0x19
      e8:	e1 a9       	ldd	r30, Z+49	; 0x31
      ea:	3e 4c       	sbci	r19, 0xCE	; 206
      ec:	80 ef       	ldi	r24, 0xF0	; 240
      ee:	ff be       	out	0x3f, r15	; 63
      f0:	01 c4       	rjmp	.+2050   	; 0x8f4 <__addsf3x+0x42>
      f2:	ff 7f       	andi	r31, 0xFF	; 255
      f4:	3f 00       	.word	0x003f	; ????
      f6:	00 00       	nop
	...

000000fa <__ctors_end>:
      fa:	11 24       	eor	r1, r1
      fc:	1f be       	out	0x3f, r1	; 63
      fe:	cf e5       	ldi	r28, 0x5F	; 95
     100:	d4 e0       	ldi	r29, 0x04	; 4
     102:	de bf       	out	0x3e, r29	; 62
     104:	cd bf       	out	0x3d, r28	; 61

00000106 <__do_clear_bss>:
     106:	20 e0       	ldi	r18, 0x00	; 0
     108:	a0 e6       	ldi	r26, 0x60	; 96
     10a:	b0 e0       	ldi	r27, 0x00	; 0
     10c:	01 c0       	rjmp	.+2      	; 0x110 <.do_clear_bss_start>

0000010e <.do_clear_bss_loop>:
     10e:	1d 92       	st	X+, r1

00000110 <.do_clear_bss_start>:
     110:	ab 37       	cpi	r26, 0x7B	; 123
     112:	b2 07       	cpc	r27, r18
     114:	e1 f7       	brne	.-8      	; 0x10e <.do_clear_bss_loop>
     116:	0e 94 2e 04 	call	0x85c	; 0x85c <main>
     11a:	0c 94 16 08 	jmp	0x102c	; 0x102c <_exit>

0000011e <__bad_interrupt>:
     11e:	0c 94 00 00 	jmp	0	; 0x0 <__vectors>

00000122 <ADC_init>:
	/* ADMUX Register Bits Description:
	 * REFS1:0 = 00 to choose to connect external reference voltage by input this voltage through AREF pin
	 * ADLAR   = 0 right adjusted
	 * MUX4:0  = 00000 to choose channel 0 as initialization
	 */
	ADMUX = 0x00;
     122:	17 b8       	out	0x07, r1	; 7
	/* ADCSRA Register Bits Description:
	 * ADEN    = 1 Enable ADC
	 * ADIE    = 0 Disable ADC Interrupt
	 * ADPS2:0 = 011 to choose ADC_Clock=F_CPU/8=1Mhz/8=125Khz --> ADC must operate in range 50-200Khz
	 */
	ADCSRA = (1<<7) | (1<<1) | (1<<0);
     124:	83 e8       	ldi	r24, 0x83	; 131
     126:	86 b9       	out	0x06, r24	; 6
     128:	08 95       	ret

0000012a <ADC_readChannel>:
}

unsigned short ADC_readChannel(unsigned char channel_num)
{
	//channel_num &= 0x07; /* channel number must be from 0 --> 7 */
	ADMUX &= 0xE0; /* clear first 5 bits in the ADMUX (channel number MUX4:0 bits) before set the required channel */
     12a:	97 b1       	in	r25, 0x07	; 7
     12c:	90 7e       	andi	r25, 0xE0	; 224
     12e:	97 b9       	out	0x07, r25	; 7
	ADMUX = ADMUX | channel_num; /* choose the correct channel by setting the channel number in MUX4:0 bits */
     130:	97 b1       	in	r25, 0x07	; 7
     132:	89 2b       	or	r24, r25
     134:	87 b9       	out	0x07, r24	; 7
	SET_BIT(ADCSRA,6); /* start conversion write '1' to ADSC */
     136:	86 b1       	in	r24, 0x06	; 6
     138:	80 64       	ori	r24, 0x40	; 64
     13a:	86 b9       	out	0x06, r24	; 6
	//ADCSRA |= (1<<ADSC);
	while(BIT_IS_CLEAR(ADCSRA,4)); /* wait for conversion to complete ADIF becomes '1' */
     13c:	34 9b       	sbis	0x06, 4	; 6
     13e:	fe cf       	rjmp	.-4      	; 0x13c <ADC_readChannel+0x12>
		SET_BIT(ADCSRA,4); /* clear ADIF by write '1' to it :) */
     140:	86 b1       	in	r24, 0x06	; 6
     142:	80 61       	ori	r24, 0x10	; 16
     144:	86 b9       	out	0x06, r24	; 6
	return ADC; /* return the data register */
     146:	84 b1       	in	r24, 0x04	; 4
     148:	95 b1       	in	r25, 0x05	; 5
	

}
     14a:	08 95       	ret

0000014c <DATA_DIRECTION_REGISTER>:
// turns a BCD-encoded byte back into a standard one
u8 Bcd_to_decimal (u8 value)
{
	value=TWDR;
	return( ((value>>4)*10)+(value &0xF));
}
     14c:	81 b3       	in	r24, 0x11	; 17
     14e:	81 60       	ori	r24, 0x01	; 1
     150:	81 bb       	out	0x11, r24	; 17
     152:	81 b3       	in	r24, 0x11	; 17
     154:	82 60       	ori	r24, 0x02	; 2
     156:	81 bb       	out	0x11, r24	; 17
     158:	81 b3       	in	r24, 0x11	; 17
     15a:	84 60       	ori	r24, 0x04	; 4
     15c:	81 bb       	out	0x11, r24	; 17
     15e:	81 b3       	in	r24, 0x11	; 17
     160:	88 60       	ori	r24, 0x08	; 8
     162:	81 bb       	out	0x11, r24	; 17
     164:	81 b3       	in	r24, 0x11	; 17
     166:	80 61       	ori	r24, 0x10	; 16
     168:	81 bb       	out	0x11, r24	; 17
     16a:	81 b3       	in	r24, 0x11	; 17
     16c:	80 62       	ori	r24, 0x20	; 32
     16e:	81 bb       	out	0x11, r24	; 17
     170:	81 b3       	in	r24, 0x11	; 17
     172:	80 64       	ori	r24, 0x40	; 64
     174:	81 bb       	out	0x11, r24	; 17
     176:	81 b3       	in	r24, 0x11	; 17
     178:	80 68       	ori	r24, 0x80	; 128
     17a:	81 bb       	out	0x11, r24	; 17
     17c:	87 b3       	in	r24, 0x17	; 23
     17e:	81 60       	ori	r24, 0x01	; 1
     180:	87 bb       	out	0x17, r24	; 23
     182:	87 b3       	in	r24, 0x17	; 23
     184:	80 68       	ori	r24, 0x80	; 128
     186:	87 bb       	out	0x17, r24	; 23
     188:	87 b3       	in	r24, 0x17	; 23
     18a:	80 62       	ori	r24, 0x20	; 32
     18c:	87 bb       	out	0x17, r24	; 23
     18e:	87 b3       	in	r24, 0x17	; 23
     190:	80 64       	ori	r24, 0x40	; 64
     192:	87 bb       	out	0x17, r24	; 23
     194:	87 b3       	in	r24, 0x17	; 23
     196:	80 61       	ori	r24, 0x10	; 16
     198:	87 bb       	out	0x17, r24	; 23
     19a:	87 b3       	in	r24, 0x17	; 23
     19c:	87 7f       	andi	r24, 0xF7	; 247
     19e:	87 bb       	out	0x17, r24	; 23
     1a0:	87 b3       	in	r24, 0x17	; 23
     1a2:	8b 7f       	andi	r24, 0xFB	; 251
     1a4:	87 bb       	out	0x17, r24	; 23
     1a6:	87 b3       	in	r24, 0x17	; 23
     1a8:	8d 7f       	andi	r24, 0xFD	; 253
     1aa:	87 bb       	out	0x17, r24	; 23
     1ac:	08 95       	ret

000001ae <Init_VARIABLES>:
     1ae:	82 b3       	in	r24, 0x12	; 18
     1b0:	8f 77       	andi	r24, 0x7F	; 127
     1b2:	82 bb       	out	0x12, r24	; 18
     1b4:	82 b3       	in	r24, 0x12	; 18
     1b6:	80 64       	ori	r24, 0x40	; 64
     1b8:	82 bb       	out	0x12, r24	; 18
     1ba:	82 b3       	in	r24, 0x12	; 18
     1bc:	80 62       	ori	r24, 0x20	; 32
     1be:	82 bb       	out	0x12, r24	; 18
     1c0:	82 b3       	in	r24, 0x12	; 18
     1c2:	8f 7e       	andi	r24, 0xEF	; 239
     1c4:	82 bb       	out	0x12, r24	; 18
     1c6:	82 b3       	in	r24, 0x12	; 18
     1c8:	87 7f       	andi	r24, 0xF7	; 247
     1ca:	82 bb       	out	0x12, r24	; 18
     1cc:	82 b3       	in	r24, 0x12	; 18
     1ce:	8b 7f       	andi	r24, 0xFB	; 251
     1d0:	82 bb       	out	0x12, r24	; 18
     1d2:	82 b3       	in	r24, 0x12	; 18
     1d4:	8d 7f       	andi	r24, 0xFD	; 253
     1d6:	82 bb       	out	0x12, r24	; 18
     1d8:	82 b3       	in	r24, 0x12	; 18
     1da:	8e 7f       	andi	r24, 0xFE	; 254
     1dc:	82 bb       	out	0x12, r24	; 18
     1de:	88 b3       	in	r24, 0x18	; 24
     1e0:	8f 7e       	andi	r24, 0xEF	; 239
     1e2:	88 bb       	out	0x18, r24	; 24
     1e4:	88 b3       	in	r24, 0x18	; 24
     1e6:	8f 7d       	andi	r24, 0xDF	; 223
     1e8:	88 bb       	out	0x18, r24	; 24
     1ea:	88 b3       	in	r24, 0x18	; 24
     1ec:	8f 7b       	andi	r24, 0xBF	; 191
     1ee:	88 bb       	out	0x18, r24	; 24
     1f0:	88 b3       	in	r24, 0x18	; 24
     1f2:	81 60       	ori	r24, 0x01	; 1
     1f4:	88 bb       	out	0x18, r24	; 24
     1f6:	88 b3       	in	r24, 0x18	; 24
     1f8:	80 68       	ori	r24, 0x80	; 128
     1fa:	88 bb       	out	0x18, r24	; 24
     1fc:	08 95       	ret

000001fe <Avg_reading>:
     1fe:	60 91 75 00 	lds	r22, 0x0075	; 0x800075 <x>
     202:	70 91 76 00 	lds	r23, 0x0076	; 0x800076 <x+0x1>
     206:	80 91 77 00 	lds	r24, 0x0077	; 0x800077 <x+0x2>
     20a:	90 91 78 00 	lds	r25, 0x0078	; 0x800078 <x+0x3>
     20e:	20 91 6d 00 	lds	r18, 0x006D	; 0x80006d <sum>
     212:	30 91 6e 00 	lds	r19, 0x006E	; 0x80006e <sum+0x1>
     216:	40 91 6f 00 	lds	r20, 0x006F	; 0x80006f <sum+0x2>
     21a:	50 91 70 00 	lds	r21, 0x0070	; 0x800070 <sum+0x3>
     21e:	0e 94 42 04 	call	0x884	; 0x884 <__addsf3>
     222:	60 93 6d 00 	sts	0x006D, r22	; 0x80006d <sum>
     226:	70 93 6e 00 	sts	0x006E, r23	; 0x80006e <sum+0x1>
     22a:	80 93 6f 00 	sts	0x006F, r24	; 0x80006f <sum+0x2>
     22e:	90 93 70 00 	sts	0x0070, r25	; 0x800070 <sum+0x3>
     232:	20 91 6a 00 	lds	r18, 0x006A	; 0x80006a <i>
     236:	2f 5f       	subi	r18, 0xFF	; 255
     238:	20 93 6a 00 	sts	0x006A, r18	; 0x80006a <i>
     23c:	29 30       	cpi	r18, 0x09	; 9
     23e:	c1 f4       	brne	.+48     	; 0x270 <__EEPROM_REGION_LENGTH__+0x70>
     240:	24 e1       	ldi	r18, 0x14	; 20
     242:	3e ea       	ldi	r19, 0xAE	; 174
     244:	41 e1       	ldi	r20, 0x11	; 17
     246:	51 e4       	ldi	r21, 0x41	; 65
     248:	0e 94 b3 04 	call	0x966	; 0x966 <__divsf3>
     24c:	60 93 71 00 	sts	0x0071, r22	; 0x800071 <average>
     250:	70 93 72 00 	sts	0x0072, r23	; 0x800072 <average+0x1>
     254:	80 93 73 00 	sts	0x0073, r24	; 0x800073 <average+0x2>
     258:	90 93 74 00 	sts	0x0074, r25	; 0x800074 <average+0x3>
     25c:	10 92 6a 00 	sts	0x006A, r1	; 0x80006a <i>
     260:	10 92 6d 00 	sts	0x006D, r1	; 0x80006d <sum>
     264:	10 92 6e 00 	sts	0x006E, r1	; 0x80006e <sum+0x1>
     268:	10 92 6f 00 	sts	0x006F, r1	; 0x80006f <sum+0x2>
     26c:	10 92 70 00 	sts	0x0070, r1	; 0x800070 <sum+0x3>
     270:	08 95       	ret

00000272 <Temperature_reading>:
     272:	80 e0       	ldi	r24, 0x00	; 0
     274:	0e 94 95 00 	call	0x12a	; 0x12a <ADC_readChannel>
     278:	90 93 7a 00 	sts	0x007A, r25	; 0x80007a <volt+0x1>
     27c:	80 93 79 00 	sts	0x0079, r24	; 0x800079 <volt>
     280:	60 91 79 00 	lds	r22, 0x0079	; 0x800079 <volt>
     284:	70 91 7a 00 	lds	r23, 0x007A	; 0x80007a <volt+0x1>
     288:	cb 01       	movw	r24, r22
     28a:	88 0f       	add	r24, r24
     28c:	99 1f       	adc	r25, r25
     28e:	88 0f       	add	r24, r24
     290:	99 1f       	adc	r25, r25
     292:	68 0f       	add	r22, r24
     294:	79 1f       	adc	r23, r25
     296:	80 e0       	ldi	r24, 0x00	; 0
     298:	90 e0       	ldi	r25, 0x00	; 0
     29a:	0e 94 54 05 	call	0xaa8	; 0xaa8 <__floatunsisf>
     29e:	20 e0       	ldi	r18, 0x00	; 0
     2a0:	30 ec       	ldi	r19, 0xC0	; 192
     2a2:	4f e7       	ldi	r20, 0x7F	; 127
     2a4:	54 e4       	ldi	r21, 0x44	; 68
     2a6:	0e 94 b3 04 	call	0x966	; 0x966 <__divsf3>
     2aa:	60 93 75 00 	sts	0x0075, r22	; 0x800075 <x>
     2ae:	70 93 76 00 	sts	0x0076, r23	; 0x800076 <x+0x1>
     2b2:	80 93 77 00 	sts	0x0077, r24	; 0x800077 <x+0x2>
     2b6:	90 93 78 00 	sts	0x0078, r25	; 0x800078 <x+0x3>
     2ba:	60 91 75 00 	lds	r22, 0x0075	; 0x800075 <x>
     2be:	70 91 76 00 	lds	r23, 0x0076	; 0x800076 <x+0x1>
     2c2:	80 91 77 00 	lds	r24, 0x0077	; 0x800077 <x+0x2>
     2c6:	90 91 78 00 	lds	r25, 0x0078	; 0x800078 <x+0x3>
     2ca:	20 e0       	ldi	r18, 0x00	; 0
     2cc:	30 e0       	ldi	r19, 0x00	; 0
     2ce:	48 ec       	ldi	r20, 0xC8	; 200
     2d0:	52 e4       	ldi	r21, 0x42	; 66
     2d2:	0e 94 06 06 	call	0xc0c	; 0xc0c <__mulsf3>
     2d6:	60 93 75 00 	sts	0x0075, r22	; 0x800075 <x>
     2da:	70 93 76 00 	sts	0x0076, r23	; 0x800076 <x+0x1>
     2de:	80 93 77 00 	sts	0x0077, r24	; 0x800077 <x+0x2>
     2e2:	90 93 78 00 	sts	0x0078, r25	; 0x800078 <x+0x3>
     2e6:	0e 94 ff 00 	call	0x1fe	; 0x1fe <Avg_reading>
     2ea:	08 95       	ret

000002ec <ACTIVATION>:
     2ec:	cf 92       	push	r12
     2ee:	df 92       	push	r13
     2f0:	ef 92       	push	r14
     2f2:	ff 92       	push	r15
     2f4:	cf 93       	push	r28
     2f6:	20 91 6b 00 	lds	r18, 0x006B	; 0x80006b <counter>
     2fa:	30 91 6c 00 	lds	r19, 0x006C	; 0x80006c <counter+0x1>
     2fe:	28 17       	cp	r18, r24
     300:	39 07       	cpc	r19, r25
     302:	09 f0       	breq	.+2      	; 0x306 <ACTIVATION+0x1a>
     304:	3f c0       	rjmp	.+126    	; 0x384 <ACTIVATION+0x98>
     306:	c4 2f       	mov	r28, r20
     308:	70 e0       	ldi	r23, 0x00	; 0
     30a:	80 e0       	ldi	r24, 0x00	; 0
     30c:	90 e0       	ldi	r25, 0x00	; 0
     30e:	0e 94 56 05 	call	0xaac	; 0xaac <__floatsisf>
     312:	c0 90 71 00 	lds	r12, 0x0071	; 0x800071 <average>
     316:	d0 90 72 00 	lds	r13, 0x0072	; 0x800072 <average+0x1>
     31a:	e0 90 73 00 	lds	r14, 0x0073	; 0x800073 <average+0x2>
     31e:	f0 90 74 00 	lds	r15, 0x0074	; 0x800074 <average+0x3>
     322:	a7 01       	movw	r20, r14
     324:	96 01       	movw	r18, r12
     326:	0e 94 ae 04 	call	0x95c	; 0x95c <__cmpsf2>
     32a:	18 16       	cp	r1, r24
     32c:	54 f0       	brlt	.+20     	; 0x342 <ACTIVATION+0x56>
     32e:	88 b3       	in	r24, 0x18	; 24
     330:	80 62       	ori	r24, 0x20	; 32
     332:	88 bb       	out	0x18, r24	; 24
     334:	88 b3       	in	r24, 0x18	; 24
     336:	8f 7b       	andi	r24, 0xBF	; 191
     338:	88 bb       	out	0x18, r24	; 24
     33a:	88 b3       	in	r24, 0x18	; 24
     33c:	80 61       	ori	r24, 0x10	; 16
     33e:	88 bb       	out	0x18, r24	; 24
     340:	21 c0       	rjmp	.+66     	; 0x384 <ACTIVATION+0x98>
     342:	6c 2f       	mov	r22, r28
     344:	70 e0       	ldi	r23, 0x00	; 0
     346:	80 e0       	ldi	r24, 0x00	; 0
     348:	90 e0       	ldi	r25, 0x00	; 0
     34a:	0e 94 56 05 	call	0xaac	; 0xaac <__floatsisf>
     34e:	9b 01       	movw	r18, r22
     350:	ac 01       	movw	r20, r24
     352:	c7 01       	movw	r24, r14
     354:	b6 01       	movw	r22, r12
     356:	0e 94 ae 04 	call	0x95c	; 0x95c <__cmpsf2>
     35a:	18 16       	cp	r1, r24
     35c:	9c f0       	brlt	.+38     	; 0x384 <ACTIVATION+0x98>
     35e:	88 b3       	in	r24, 0x18	; 24
     360:	8f 7d       	andi	r24, 0xDF	; 223
     362:	88 bb       	out	0x18, r24	; 24
     364:	88 b3       	in	r24, 0x18	; 24
     366:	80 64       	ori	r24, 0x40	; 64
     368:	88 bb       	out	0x18, r24	; 24
     36a:	98 b3       	in	r25, 0x18	; 24
     36c:	80 e1       	ldi	r24, 0x10	; 16
     36e:	89 27       	eor	r24, r25
     370:	88 bb       	out	0x18, r24	; 24
     372:	2f ed       	ldi	r18, 0xDF	; 223
     374:	82 e2       	ldi	r24, 0x22	; 34
     376:	92 e0       	ldi	r25, 0x02	; 2
     378:	21 50       	subi	r18, 0x01	; 1
     37a:	80 40       	sbci	r24, 0x00	; 0
     37c:	90 40       	sbci	r25, 0x00	; 0
     37e:	e1 f7       	brne	.-8      	; 0x378 <ACTIVATION+0x8c>
     380:	00 c0       	rjmp	.+0      	; 0x382 <ACTIVATION+0x96>
     382:	00 00       	nop
     384:	cf 91       	pop	r28
     386:	ff 90       	pop	r15
     388:	ef 90       	pop	r14
     38a:	df 90       	pop	r13
     38c:	cf 90       	pop	r12
     38e:	08 95       	ret

00000390 <ELEMENTS>:
     390:	e0 91 6b 00 	lds	r30, 0x006B	; 0x80006b <counter>
     394:	f0 91 6c 00 	lds	r31, 0x006C	; 0x80006c <counter+0x1>
     398:	35 96       	adiw	r30, 0x05	; 5
     39a:	e9 30       	cpi	r30, 0x09	; 9
     39c:	f1 05       	cpc	r31, r1
     39e:	08 f0       	brcs	.+2      	; 0x3a2 <ELEMENTS+0x12>
     3a0:	54 c0       	rjmp	.+168    	; 0x44a <__DATA_REGION_LENGTH__+0x4a>
     3a2:	e6 5d       	subi	r30, 0xD6	; 214
     3a4:	ff 4f       	sbci	r31, 0xFF	; 255
     3a6:	0c 94 f8 07 	jmp	0xff0	; 0xff0 <__tablejump2__>
     3aa:	4c e3       	ldi	r20, 0x3C	; 60
     3ac:	50 e0       	ldi	r21, 0x00	; 0
     3ae:	66 e4       	ldi	r22, 0x46	; 70
     3b0:	70 e0       	ldi	r23, 0x00	; 0
     3b2:	81 e0       	ldi	r24, 0x01	; 1
     3b4:	90 e0       	ldi	r25, 0x00	; 0
     3b6:	0e 94 76 01 	call	0x2ec	; 0x2ec <ACTIVATION>
     3ba:	08 95       	ret
     3bc:	42 e3       	ldi	r20, 0x32	; 50
     3be:	50 e0       	ldi	r21, 0x00	; 0
     3c0:	6c e3       	ldi	r22, 0x3C	; 60
     3c2:	70 e0       	ldi	r23, 0x00	; 0
     3c4:	8f ef       	ldi	r24, 0xFF	; 255
     3c6:	9f ef       	ldi	r25, 0xFF	; 255
     3c8:	0e 94 76 01 	call	0x2ec	; 0x2ec <ACTIVATION>
     3cc:	08 95       	ret
     3ce:	41 e4       	ldi	r20, 0x41	; 65
     3d0:	50 e0       	ldi	r21, 0x00	; 0
     3d2:	6b e4       	ldi	r22, 0x4B	; 75
     3d4:	70 e0       	ldi	r23, 0x00	; 0
     3d6:	82 e0       	ldi	r24, 0x02	; 2
     3d8:	90 e0       	ldi	r25, 0x00	; 0
     3da:	0e 94 76 01 	call	0x2ec	; 0x2ec <ACTIVATION>
     3de:	08 95       	ret
     3e0:	4d e2       	ldi	r20, 0x2D	; 45
     3e2:	50 e0       	ldi	r21, 0x00	; 0
     3e4:	67 e3       	ldi	r22, 0x37	; 55
     3e6:	70 e0       	ldi	r23, 0x00	; 0
     3e8:	8e ef       	ldi	r24, 0xFE	; 254
     3ea:	9f ef       	ldi	r25, 0xFF	; 255
     3ec:	0e 94 76 01 	call	0x2ec	; 0x2ec <ACTIVATION>
     3f0:	08 95       	ret
     3f2:	46 e4       	ldi	r20, 0x46	; 70
     3f4:	50 e0       	ldi	r21, 0x00	; 0
     3f6:	60 e5       	ldi	r22, 0x50	; 80
     3f8:	70 e0       	ldi	r23, 0x00	; 0
     3fa:	83 e0       	ldi	r24, 0x03	; 3
     3fc:	90 e0       	ldi	r25, 0x00	; 0
     3fe:	0e 94 76 01 	call	0x2ec	; 0x2ec <ACTIVATION>
     402:	08 95       	ret
     404:	48 e2       	ldi	r20, 0x28	; 40
     406:	50 e0       	ldi	r21, 0x00	; 0
     408:	62 e3       	ldi	r22, 0x32	; 50
     40a:	70 e0       	ldi	r23, 0x00	; 0
     40c:	8d ef       	ldi	r24, 0xFD	; 253
     40e:	9f ef       	ldi	r25, 0xFF	; 255
     410:	0e 94 76 01 	call	0x2ec	; 0x2ec <ACTIVATION>
     414:	08 95       	ret
     416:	47 e3       	ldi	r20, 0x37	; 55
     418:	50 e0       	ldi	r21, 0x00	; 0
     41a:	61 e4       	ldi	r22, 0x41	; 65
     41c:	70 e0       	ldi	r23, 0x00	; 0
     41e:	80 e0       	ldi	r24, 0x00	; 0
     420:	90 e0       	ldi	r25, 0x00	; 0
     422:	0e 94 76 01 	call	0x2ec	; 0x2ec <ACTIVATION>
     426:	08 95       	ret
     428:	43 e2       	ldi	r20, 0x23	; 35
     42a:	50 e0       	ldi	r21, 0x00	; 0
     42c:	6d e2       	ldi	r22, 0x2D	; 45
     42e:	70 e0       	ldi	r23, 0x00	; 0
     430:	8c ef       	ldi	r24, 0xFC	; 252
     432:	9f ef       	ldi	r25, 0xFF	; 255
     434:	0e 94 76 01 	call	0x2ec	; 0x2ec <ACTIVATION>
     438:	08 95       	ret
     43a:	4e e1       	ldi	r20, 0x1E	; 30
     43c:	50 e0       	ldi	r21, 0x00	; 0
     43e:	68 e2       	ldi	r22, 0x28	; 40
     440:	70 e0       	ldi	r23, 0x00	; 0
     442:	8b ef       	ldi	r24, 0xFB	; 251
     444:	9f ef       	ldi	r25, 0xFF	; 255
     446:	0e 94 76 01 	call	0x2ec	; 0x2ec <ACTIVATION>
     44a:	08 95       	ret

0000044c <on_off_7_segment>:
     44c:	81 30       	cpi	r24, 0x01	; 1
     44e:	39 f4       	brne	.+14     	; 0x45e <on_off_7_segment+0x12>
     450:	88 b3       	in	r24, 0x18	; 24
     452:	8e 7f       	andi	r24, 0xFE	; 254
     454:	88 bb       	out	0x18, r24	; 24
     456:	88 b3       	in	r24, 0x18	; 24
     458:	8f 77       	andi	r24, 0x7F	; 127
     45a:	88 bb       	out	0x18, r24	; 24
     45c:	08 95       	ret
     45e:	81 11       	cpse	r24, r1
     460:	06 c0       	rjmp	.+12     	; 0x46e <__stack+0xf>
     462:	88 b3       	in	r24, 0x18	; 24
     464:	81 60       	ori	r24, 0x01	; 1
     466:	88 bb       	out	0x18, r24	; 24
     468:	88 b3       	in	r24, 0x18	; 24
     46a:	80 68       	ori	r24, 0x80	; 128
     46c:	88 bb       	out	0x18, r24	; 24
     46e:	08 95       	ret

00000470 <OFF_MODE>:
     470:	88 b3       	in	r24, 0x18	; 24
     472:	8f 7d       	andi	r24, 0xDF	; 223
     474:	88 bb       	out	0x18, r24	; 24
     476:	88 b3       	in	r24, 0x18	; 24
     478:	8f 7b       	andi	r24, 0xBF	; 191
     47a:	88 bb       	out	0x18, r24	; 24
     47c:	88 b3       	in	r24, 0x18	; 24
     47e:	8f 7e       	andi	r24, 0xEF	; 239
     480:	88 bb       	out	0x18, r24	; 24
     482:	80 e0       	ldi	r24, 0x00	; 0
     484:	0e 94 26 02 	call	0x44c	; 0x44c <on_off_7_segment>
     488:	08 95       	ret

0000048a <on_off_mode>:
     48a:	b1 9b       	sbis	0x16, 1	; 22
     48c:	0c c0       	rjmp	.+24     	; 0x4a6 <on_off_mode+0x1c>
     48e:	80 91 69 00 	lds	r24, 0x0069	; 0x800069 <flag>
     492:	81 11       	cpse	r24, r1
     494:	08 c0       	rjmp	.+16     	; 0x4a6 <on_off_mode+0x1c>
     496:	81 e0       	ldi	r24, 0x01	; 1
     498:	80 93 69 00 	sts	0x0069, r24	; 0x800069 <flag>
     49c:	80 93 68 00 	sts	0x0068, r24	; 0x800068 <Start_Mode>
     4a0:	b1 99       	sbic	0x16, 1	; 22
     4a2:	fe cf       	rjmp	.-4      	; 0x4a0 <on_off_mode+0x16>
     4a4:	08 95       	ret
     4a6:	b1 9b       	sbis	0x16, 1	; 22
     4a8:	0a c0       	rjmp	.+20     	; 0x4be <on_off_mode+0x34>
     4aa:	80 91 69 00 	lds	r24, 0x0069	; 0x800069 <flag>
     4ae:	81 30       	cpi	r24, 0x01	; 1
     4b0:	31 f4       	brne	.+12     	; 0x4be <on_off_mode+0x34>
     4b2:	b1 99       	sbic	0x16, 1	; 22
     4b4:	fe cf       	rjmp	.-4      	; 0x4b2 <on_off_mode+0x28>
     4b6:	10 92 69 00 	sts	0x0069, r1	; 0x800069 <flag>
     4ba:	0e 94 38 02 	call	0x470	; 0x470 <OFF_MODE>
     4be:	08 95       	ret

000004c0 <I2C_Init>:
     4c0:	11 b8       	out	0x01, r1	; 1
     4c2:	61 b1       	in	r22, 0x01	; 1
     4c4:	63 70       	andi	r22, 0x03	; 3
     4c6:	70 e0       	ldi	r23, 0x00	; 0
     4c8:	80 e0       	ldi	r24, 0x00	; 0
     4ca:	90 e0       	ldi	r25, 0x00	; 0
     4cc:	0e 94 56 05 	call	0xaac	; 0xaac <__floatsisf>
     4d0:	9b 01       	movw	r18, r22
     4d2:	ac 01       	movw	r20, r24
     4d4:	60 e0       	ldi	r22, 0x00	; 0
     4d6:	70 e0       	ldi	r23, 0x00	; 0
     4d8:	80 e8       	ldi	r24, 0x80	; 128
     4da:	90 e4       	ldi	r25, 0x40	; 64
     4dc:	0e 94 73 06 	call	0xce6	; 0xce6 <pow>
     4e0:	9b 01       	movw	r18, r22
     4e2:	ac 01       	movw	r20, r24
     4e4:	0e 94 42 04 	call	0x884	; 0x884 <__addsf3>
     4e8:	9b 01       	movw	r18, r22
     4ea:	ac 01       	movw	r20, r24
     4ec:	60 e0       	ldi	r22, 0x00	; 0
     4ee:	70 e0       	ldi	r23, 0x00	; 0
     4f0:	80 e8       	ldi	r24, 0x80	; 128
     4f2:	9f e4       	ldi	r25, 0x4F	; 79
     4f4:	0e 94 b3 04 	call	0x966	; 0x966 <__divsf3>
     4f8:	0e 94 25 05 	call	0xa4a	; 0xa4a <__fixunssfsi>
     4fc:	60 b9       	out	0x00, r22	; 0
     4fe:	08 95       	ret

00000500 <I2C_Start>:
     500:	94 ea       	ldi	r25, 0xA4	; 164
     502:	96 bf       	out	0x36, r25	; 54
     504:	06 b6       	in	r0, 0x36	; 54
     506:	07 fe       	sbrs	r0, 7
     508:	fd cf       	rjmp	.-6      	; 0x504 <I2C_Start+0x4>
     50a:	83 b9       	out	0x03, r24	; 3
     50c:	84 e8       	ldi	r24, 0x84	; 132
     50e:	86 bf       	out	0x36, r24	; 54
     510:	06 b6       	in	r0, 0x36	; 54
     512:	07 fe       	sbrs	r0, 7
     514:	fd cf       	rjmp	.-6      	; 0x510 <I2C_Start+0x10>
     516:	80 e0       	ldi	r24, 0x00	; 0
     518:	08 95       	ret

0000051a <I2C_Repeated_Start>:
     51a:	94 ea       	ldi	r25, 0xA4	; 164
     51c:	96 bf       	out	0x36, r25	; 54
     51e:	06 b6       	in	r0, 0x36	; 54
     520:	07 fe       	sbrs	r0, 7
     522:	fd cf       	rjmp	.-6      	; 0x51e <I2C_Repeated_Start+0x4>
     524:	83 b9       	out	0x03, r24	; 3
     526:	84 e8       	ldi	r24, 0x84	; 132
     528:	86 bf       	out	0x36, r24	; 54
     52a:	06 b6       	in	r0, 0x36	; 54
     52c:	07 fe       	sbrs	r0, 7
     52e:	fd cf       	rjmp	.-6      	; 0x52a <I2C_Repeated_Start+0x10>
     530:	80 e0       	ldi	r24, 0x00	; 0
     532:	08 95       	ret

00000534 <I2C_Read_Nack>:
     534:	84 e8       	ldi	r24, 0x84	; 132
     536:	86 bf       	out	0x36, r24	; 54
     538:	06 b6       	in	r0, 0x36	; 54
     53a:	07 fe       	sbrs	r0, 7
     53c:	fd cf       	rjmp	.-6      	; 0x538 <I2C_Read_Nack+0x4>
     53e:	83 b1       	in	r24, 0x03	; 3
     540:	08 95       	ret

00000542 <I2C_Stop>:
     542:	84 e9       	ldi	r24, 0x94	; 148
     544:	86 bf       	out	0x36, r24	; 54
     546:	86 b7       	in	r24, 0x36	; 54
     548:	08 95       	ret

0000054a <decimal_to_bcd>:
     54a:	9d ec       	ldi	r25, 0xCD	; 205
     54c:	89 9f       	mul	r24, r25
     54e:	91 2d       	mov	r25, r1
     550:	11 24       	eor	r1, r1
     552:	96 95       	lsr	r25
     554:	96 95       	lsr	r25
     556:	96 95       	lsr	r25
     558:	39 2f       	mov	r19, r25
     55a:	33 0f       	add	r19, r19
     55c:	23 2f       	mov	r18, r19
     55e:	22 0f       	add	r18, r18
     560:	22 0f       	add	r18, r18
     562:	23 0f       	add	r18, r19
     564:	82 1b       	sub	r24, r18
     566:	30 e1       	ldi	r19, 0x10	; 16
     568:	93 9f       	mul	r25, r19
     56a:	80 0d       	add	r24, r0
     56c:	11 24       	eor	r1, r1
     56e:	08 95       	ret

00000570 <current_water_temperature>:
     570:	81 e0       	ldi	r24, 0x01	; 1
     572:	90 e0       	ldi	r25, 0x00	; 0
     574:	0e 94 26 02 	call	0x44c	; 0x44c <on_off_7_segment>
     578:	60 91 75 00 	lds	r22, 0x0075	; 0x800075 <x>
     57c:	70 91 76 00 	lds	r23, 0x0076	; 0x800076 <x+0x1>
     580:	80 91 77 00 	lds	r24, 0x0077	; 0x800077 <x+0x2>
     584:	90 91 78 00 	lds	r25, 0x0078	; 0x800078 <x+0x3>
     588:	0e 94 25 05 	call	0xa4a	; 0xa4a <__fixunssfsi>
     58c:	86 2f       	mov	r24, r22
     58e:	0e 94 a5 02 	call	0x54a	; 0x54a <decimal_to_bcd>
     592:	82 bb       	out	0x12, r24	; 18
     594:	08 95       	ret

00000596 <I2C_Write>:
     596:	0e 94 a5 02 	call	0x54a	; 0x54a <decimal_to_bcd>
     59a:	83 b9       	out	0x03, r24	; 3
     59c:	84 e8       	ldi	r24, 0x84	; 132
     59e:	86 bf       	out	0x36, r24	; 54
     5a0:	06 b6       	in	r0, 0x36	; 54
     5a2:	07 fe       	sbrs	r0, 7
     5a4:	fd cf       	rjmp	.-6      	; 0x5a0 <I2C_Write+0xa>
     5a6:	08 95       	ret

000005a8 <EEPROM_write_read>:

u8 EEPROM_write_read(u8 stored_data)
{
     5a8:	cf 93       	push	r28
     5aa:	c8 2f       	mov	r28, r24
	u8 data;
	I2C_Init();
     5ac:	0e 94 60 02 	call	0x4c0	; 0x4c0 <I2C_Init>
	I2C_Start(0xA0);
     5b0:	80 ea       	ldi	r24, 0xA0	; 160
     5b2:	0e 94 80 02 	call	0x500	; 0x500 <I2C_Start>
	I2C_Write(stored_data);
     5b6:	8c 2f       	mov	r24, r28
     5b8:	0e 94 cb 02 	call	0x596	; 0x596 <I2C_Write>
	I2C_Repeated_Start(0xA1);
     5bc:	81 ea       	ldi	r24, 0xA1	; 161
     5be:	0e 94 8d 02 	call	0x51a	; 0x51a <I2C_Repeated_Start>
	data=I2C_Read_Nack ();
     5c2:	0e 94 9a 02 	call	0x534	; 0x534 <I2C_Read_Nack>
     5c6:	c8 2f       	mov	r28, r24
	I2C_Stop();
     5c8:	0e 94 a1 02 	call	0x542	; 0x542 <I2C_Stop>
	return data;
	
}
     5cc:	8c 2f       	mov	r24, r28
     5ce:	cf 91       	pop	r28
     5d0:	08 95       	ret

000005d2 <setting_temp>:

void setting_temp(void)

{
	
	if(PINB&(1<<3)&&counter<3 )
     5d2:	b3 9b       	sbis	0x16, 3	; 22
     5d4:	1d c0       	rjmp	.+58     	; 0x610 <setting_temp+0x3e>
     5d6:	80 91 6b 00 	lds	r24, 0x006B	; 0x80006b <counter>
     5da:	90 91 6c 00 	lds	r25, 0x006C	; 0x80006c <counter+0x1>
     5de:	83 30       	cpi	r24, 0x03	; 3
     5e0:	91 05       	cpc	r25, r1
     5e2:	b4 f4       	brge	.+44     	; 0x610 <setting_temp+0x3e>
	{
		counter++;
     5e4:	01 96       	adiw	r24, 0x01	; 1
     5e6:	90 93 6c 00 	sts	0x006C, r25	; 0x80006c <counter+0x1>
     5ea:	80 93 6b 00 	sts	0x006B, r24	; 0x80006b <counter>
		counter_for_Timer=0;
     5ee:	10 92 60 00 	sts	0x0060, r1	; 0x800060 <__DATA_REGION_ORIGIN__>
     5f2:	10 92 61 00 	sts	0x0061, r1	; 0x800061 <__DATA_REGION_ORIGIN__+0x1>
     5f6:	10 92 62 00 	sts	0x0062, r1	; 0x800062 <__DATA_REGION_ORIGIN__+0x2>
     5fa:	10 92 63 00 	sts	0x0063, r1	; 0x800063 <__DATA_REGION_ORIGIN__+0x3>
     5fe:	10 92 64 00 	sts	0x0064, r1	; 0x800064 <__DATA_REGION_ORIGIN__+0x4>
     602:	10 92 65 00 	sts	0x0065, r1	; 0x800065 <__DATA_REGION_ORIGIN__+0x5>
     606:	10 92 66 00 	sts	0x0066, r1	; 0x800066 <__DATA_REGION_ORIGIN__+0x6>
     60a:	10 92 67 00 	sts	0x0067, r1	; 0x800067 <__DATA_REGION_ORIGIN__+0x7>
     60e:	34 c0       	rjmp	.+104    	; 0x678 <setting_temp+0xa6>
	}
	else if(PINB&(1<<2)&&counter>-5)
     610:	b2 9b       	sbis	0x16, 2	; 22
     612:	1e c0       	rjmp	.+60     	; 0x650 <setting_temp+0x7e>
     614:	80 91 6b 00 	lds	r24, 0x006B	; 0x80006b <counter>
     618:	90 91 6c 00 	lds	r25, 0x006C	; 0x80006c <counter+0x1>
     61c:	8c 3f       	cpi	r24, 0xFC	; 252
     61e:	2f ef       	ldi	r18, 0xFF	; 255
     620:	92 07       	cpc	r25, r18
     622:	b4 f0       	brlt	.+44     	; 0x650 <setting_temp+0x7e>
	{
		counter--;
     624:	01 97       	sbiw	r24, 0x01	; 1
     626:	90 93 6c 00 	sts	0x006C, r25	; 0x80006c <counter+0x1>
     62a:	80 93 6b 00 	sts	0x006B, r24	; 0x80006b <counter>
		counter_for_Timer=0;
     62e:	10 92 60 00 	sts	0x0060, r1	; 0x800060 <__DATA_REGION_ORIGIN__>
     632:	10 92 61 00 	sts	0x0061, r1	; 0x800061 <__DATA_REGION_ORIGIN__+0x1>
     636:	10 92 62 00 	sts	0x0062, r1	; 0x800062 <__DATA_REGION_ORIGIN__+0x2>
     63a:	10 92 63 00 	sts	0x0063, r1	; 0x800063 <__DATA_REGION_ORIGIN__+0x3>
     63e:	10 92 64 00 	sts	0x0064, r1	; 0x800064 <__DATA_REGION_ORIGIN__+0x4>
     642:	10 92 65 00 	sts	0x0065, r1	; 0x800065 <__DATA_REGION_ORIGIN__+0x5>
     646:	10 92 66 00 	sts	0x0066, r1	; 0x800066 <__DATA_REGION_ORIGIN__+0x6>
     64a:	10 92 67 00 	sts	0x0067, r1	; 0x800067 <__DATA_REGION_ORIGIN__+0x7>
     64e:	14 c0       	rjmp	.+40     	; 0x678 <setting_temp+0xa6>
	}
	
	else if (PINB&(1<<3) || PINB&(1<<2))
     650:	b3 99       	sbic	0x16, 3	; 22
     652:	02 c0       	rjmp	.+4      	; 0x658 <setting_temp+0x86>
     654:	b2 9b       	sbis	0x16, 2	; 22
     656:	10 c0       	rjmp	.+32     	; 0x678 <setting_temp+0xa6>
	{
		counter_for_Timer=0;
     658:	10 92 60 00 	sts	0x0060, r1	; 0x800060 <__DATA_REGION_ORIGIN__>
     65c:	10 92 61 00 	sts	0x0061, r1	; 0x800061 <__DATA_REGION_ORIGIN__+0x1>
     660:	10 92 62 00 	sts	0x0062, r1	; 0x800062 <__DATA_REGION_ORIGIN__+0x2>
     664:	10 92 63 00 	sts	0x0063, r1	; 0x800063 <__DATA_REGION_ORIGIN__+0x3>
     668:	10 92 64 00 	sts	0x0064, r1	; 0x800064 <__DATA_REGION_ORIGIN__+0x4>
     66c:	10 92 65 00 	sts	0x0065, r1	; 0x800065 <__DATA_REGION_ORIGIN__+0x5>
     670:	10 92 66 00 	sts	0x0066, r1	; 0x800066 <__DATA_REGION_ORIGIN__+0x6>
     674:	10 92 67 00 	sts	0x0067, r1	; 0x800067 <__DATA_REGION_ORIGIN__+0x7>
	}
	switch(counter)
     678:	e0 91 6b 00 	lds	r30, 0x006B	; 0x80006b <counter>
     67c:	f0 91 6c 00 	lds	r31, 0x006C	; 0x80006c <counter+0x1>
     680:	35 96       	adiw	r30, 0x05	; 5
     682:	e9 30       	cpi	r30, 0x09	; 9
     684:	f1 05       	cpc	r31, r1
     686:	f0 f4       	brcc	.+60     	; 0x6c4 <setting_temp+0xf2>
     688:	ed 5c       	subi	r30, 0xCD	; 205
     68a:	ff 4f       	sbci	r31, 0xFF	; 255
     68c:	0c 94 f8 07 	jmp	0xff0	; 0xff0 <__tablejump2__>
	{
		case 1:
		PORTD=0x65;
     690:	85 e6       	ldi	r24, 0x65	; 101
     692:	82 bb       	out	0x12, r24	; 18
		break;
     694:	17 c0       	rjmp	.+46     	; 0x6c4 <setting_temp+0xf2>
		case -1:
		PORTD=0x55;
     696:	85 e5       	ldi	r24, 0x55	; 85
     698:	82 bb       	out	0x12, r24	; 18
		break;
     69a:	14 c0       	rjmp	.+40     	; 0x6c4 <setting_temp+0xf2>
		case 2:
		PORTD=0x70;
     69c:	80 e7       	ldi	r24, 0x70	; 112
     69e:	82 bb       	out	0x12, r24	; 18
		break;
     6a0:	11 c0       	rjmp	.+34     	; 0x6c4 <setting_temp+0xf2>
		case -2:
		PORTD=0x50;
     6a2:	80 e5       	ldi	r24, 0x50	; 80
     6a4:	82 bb       	out	0x12, r24	; 18
		break;
     6a6:	0e c0       	rjmp	.+28     	; 0x6c4 <setting_temp+0xf2>
		case 3:
		PORTD=0x75;
     6a8:	85 e7       	ldi	r24, 0x75	; 117
     6aa:	82 bb       	out	0x12, r24	; 18
		break;
     6ac:	0b c0       	rjmp	.+22     	; 0x6c4 <setting_temp+0xf2>
		case -3:
		PORTD=0x45;
     6ae:	85 e4       	ldi	r24, 0x45	; 69
     6b0:	82 bb       	out	0x12, r24	; 18
		break;
     6b2:	08 c0       	rjmp	.+16     	; 0x6c4 <setting_temp+0xf2>
		case 0:
		PORTD=0x60;
     6b4:	80 e6       	ldi	r24, 0x60	; 96
     6b6:	82 bb       	out	0x12, r24	; 18
		break;
     6b8:	05 c0       	rjmp	.+10     	; 0x6c4 <setting_temp+0xf2>
		case -4:
		PORTD=0x40;
     6ba:	80 e4       	ldi	r24, 0x40	; 64
     6bc:	82 bb       	out	0x12, r24	; 18
		break;
     6be:	02 c0       	rjmp	.+4      	; 0x6c4 <setting_temp+0xf2>
		case -5:
		PORTD=0x35;
     6c0:	85 e3       	ldi	r24, 0x35	; 53
     6c2:	82 bb       	out	0x12, r24	; 18
		break;
	}
	
	EEPROM_write_read(counter);   // store value of counter to read it in EEPROM
     6c4:	80 91 6b 00 	lds	r24, 0x006B	; 0x80006b <counter>
     6c8:	0e 94 d4 02 	call	0x5a8	; 0x5a8 <EEPROM_write_read>
     6cc:	08 95       	ret

000006ce <ON_MODE_Process>:
	
}

void ON_MODE_Process (void)
{
	while(flag==1)
     6ce:	8d c0       	rjmp	.+282    	; 0x7ea <ON_MODE_Process+0x11c>
	{
		
		current_water_temperature();
     6d0:	0e 94 b8 02 	call	0x570	; 0x570 <current_water_temperature>
		ELEMENTS();
     6d4:	0e 94 c8 01 	call	0x390	; 0x390 <ELEMENTS>
		on_off_mode();
     6d8:	0e 94 45 02 	call	0x48a	; 0x48a <on_off_mode>
		if(((INPUT_BIT(PINB,3) || INPUT_BIT(PINB,2))))
     6dc:	b3 99       	sbic	0x16, 3	; 22
     6de:	5b c0       	rjmp	.+182    	; 0x796 <ON_MODE_Process+0xc8>
     6e0:	b2 99       	sbic	0x16, 2	; 22
     6e2:	59 c0       	rjmp	.+178    	; 0x796 <ON_MODE_Process+0xc8>
     6e4:	82 c0       	rjmp	.+260    	; 0x7ea <ON_MODE_Process+0x11c>
		{
			
			while( counter_for_Timer<10 &&flag==1 ) //In testing and validation ,calibration
			{
				on_off_7_segment(1);
     6e6:	81 e0       	ldi	r24, 0x01	; 1
     6e8:	0e 94 26 02 	call	0x44c	; 0x44c <on_off_7_segment>
				setting_temp();
     6ec:	0e 94 e9 02 	call	0x5d2	; 0x5d2 <setting_temp>
				ELEMENTS();
     6f0:	0e 94 c8 01 	call	0x390	; 0x390 <ELEMENTS>
				on_off_mode();
     6f4:	0e 94 45 02 	call	0x48a	; 0x48a <on_off_mode>
				counter_for_Timer++;
     6f8:	20 91 60 00 	lds	r18, 0x0060	; 0x800060 <__DATA_REGION_ORIGIN__>
     6fc:	30 91 61 00 	lds	r19, 0x0061	; 0x800061 <__DATA_REGION_ORIGIN__+0x1>
     700:	40 91 62 00 	lds	r20, 0x0062	; 0x800062 <__DATA_REGION_ORIGIN__+0x2>
     704:	50 91 63 00 	lds	r21, 0x0063	; 0x800063 <__DATA_REGION_ORIGIN__+0x3>
     708:	60 91 64 00 	lds	r22, 0x0064	; 0x800064 <__DATA_REGION_ORIGIN__+0x4>
     70c:	70 91 65 00 	lds	r23, 0x0065	; 0x800065 <__DATA_REGION_ORIGIN__+0x5>
     710:	80 91 66 00 	lds	r24, 0x0066	; 0x800066 <__DATA_REGION_ORIGIN__+0x6>
     714:	90 91 67 00 	lds	r25, 0x0067	; 0x800067 <__DATA_REGION_ORIGIN__+0x7>
     718:	a1 e0       	ldi	r26, 0x01	; 1
     71a:	0e 94 fe 07 	call	0xffc	; 0xffc <__adddi3_s8>
     71e:	20 93 60 00 	sts	0x0060, r18	; 0x800060 <__DATA_REGION_ORIGIN__>
     722:	30 93 61 00 	sts	0x0061, r19	; 0x800061 <__DATA_REGION_ORIGIN__+0x1>
     726:	40 93 62 00 	sts	0x0062, r20	; 0x800062 <__DATA_REGION_ORIGIN__+0x2>
     72a:	50 93 63 00 	sts	0x0063, r21	; 0x800063 <__DATA_REGION_ORIGIN__+0x3>
     72e:	60 93 64 00 	sts	0x0064, r22	; 0x800064 <__DATA_REGION_ORIGIN__+0x4>
     732:	70 93 65 00 	sts	0x0065, r23	; 0x800065 <__DATA_REGION_ORIGIN__+0x5>
     736:	80 93 66 00 	sts	0x0066, r24	; 0x800066 <__DATA_REGION_ORIGIN__+0x6>
     73a:	90 93 67 00 	sts	0x0067, r25	; 0x800067 <__DATA_REGION_ORIGIN__+0x7>
				on_off_7_segment(0);
     73e:	80 e0       	ldi	r24, 0x00	; 0
     740:	0e 94 26 02 	call	0x44c	; 0x44c <on_off_7_segment>
				setting_temp();
     744:	0e 94 e9 02 	call	0x5d2	; 0x5d2 <setting_temp>
				ELEMENTS();
     748:	0e 94 c8 01 	call	0x390	; 0x390 <ELEMENTS>
				on_off_mode();
     74c:	0e 94 45 02 	call	0x48a	; 0x48a <on_off_mode>
				counter_for_Timer++;
     750:	20 91 60 00 	lds	r18, 0x0060	; 0x800060 <__DATA_REGION_ORIGIN__>
     754:	30 91 61 00 	lds	r19, 0x0061	; 0x800061 <__DATA_REGION_ORIGIN__+0x1>
     758:	40 91 62 00 	lds	r20, 0x0062	; 0x800062 <__DATA_REGION_ORIGIN__+0x2>
     75c:	50 91 63 00 	lds	r21, 0x0063	; 0x800063 <__DATA_REGION_ORIGIN__+0x3>
     760:	60 91 64 00 	lds	r22, 0x0064	; 0x800064 <__DATA_REGION_ORIGIN__+0x4>
     764:	70 91 65 00 	lds	r23, 0x0065	; 0x800065 <__DATA_REGION_ORIGIN__+0x5>
     768:	80 91 66 00 	lds	r24, 0x0066	; 0x800066 <__DATA_REGION_ORIGIN__+0x6>
     76c:	90 91 67 00 	lds	r25, 0x0067	; 0x800067 <__DATA_REGION_ORIGIN__+0x7>
     770:	a1 e0       	ldi	r26, 0x01	; 1
     772:	0e 94 fe 07 	call	0xffc	; 0xffc <__adddi3_s8>
     776:	20 93 60 00 	sts	0x0060, r18	; 0x800060 <__DATA_REGION_ORIGIN__>
     77a:	30 93 61 00 	sts	0x0061, r19	; 0x800061 <__DATA_REGION_ORIGIN__+0x1>
     77e:	40 93 62 00 	sts	0x0062, r20	; 0x800062 <__DATA_REGION_ORIGIN__+0x2>
     782:	50 93 63 00 	sts	0x0063, r21	; 0x800063 <__DATA_REGION_ORIGIN__+0x3>
     786:	60 93 64 00 	sts	0x0064, r22	; 0x800064 <__DATA_REGION_ORIGIN__+0x4>
     78a:	70 93 65 00 	sts	0x0065, r23	; 0x800065 <__DATA_REGION_ORIGIN__+0x5>
     78e:	80 93 66 00 	sts	0x0066, r24	; 0x800066 <__DATA_REGION_ORIGIN__+0x6>
     792:	90 93 67 00 	sts	0x0067, r25	; 0x800067 <__DATA_REGION_ORIGIN__+0x7>
		ELEMENTS();
		on_off_mode();
		if(((INPUT_BIT(PINB,3) || INPUT_BIT(PINB,2))))
		{
			
			while( counter_for_Timer<10 &&flag==1 ) //In testing and validation ,calibration
     796:	20 91 60 00 	lds	r18, 0x0060	; 0x800060 <__DATA_REGION_ORIGIN__>
     79a:	30 91 61 00 	lds	r19, 0x0061	; 0x800061 <__DATA_REGION_ORIGIN__+0x1>
     79e:	40 91 62 00 	lds	r20, 0x0062	; 0x800062 <__DATA_REGION_ORIGIN__+0x2>
     7a2:	50 91 63 00 	lds	r21, 0x0063	; 0x800063 <__DATA_REGION_ORIGIN__+0x3>
     7a6:	60 91 64 00 	lds	r22, 0x0064	; 0x800064 <__DATA_REGION_ORIGIN__+0x4>
     7aa:	70 91 65 00 	lds	r23, 0x0065	; 0x800065 <__DATA_REGION_ORIGIN__+0x5>
     7ae:	80 91 66 00 	lds	r24, 0x0066	; 0x800066 <__DATA_REGION_ORIGIN__+0x6>
     7b2:	90 91 67 00 	lds	r25, 0x0067	; 0x800067 <__DATA_REGION_ORIGIN__+0x7>
     7b6:	a9 e0       	ldi	r26, 0x09	; 9
     7b8:	0e 94 0a 08 	call	0x1014	; 0x1014 <__cmpdi2_s8>
     7bc:	09 f0       	breq	.+2      	; 0x7c0 <ON_MODE_Process+0xf2>
     7be:	2c f4       	brge	.+10     	; 0x7ca <ON_MODE_Process+0xfc>
     7c0:	80 91 69 00 	lds	r24, 0x0069	; 0x800069 <flag>
     7c4:	81 30       	cpi	r24, 0x01	; 1
     7c6:	09 f4       	brne	.+2      	; 0x7ca <ON_MODE_Process+0xfc>
     7c8:	8e cf       	rjmp	.-228    	; 0x6e6 <ON_MODE_Process+0x18>
				counter_for_Timer++;
				
				
				
			}
			counter_for_Timer=0;
     7ca:	10 92 60 00 	sts	0x0060, r1	; 0x800060 <__DATA_REGION_ORIGIN__>
     7ce:	10 92 61 00 	sts	0x0061, r1	; 0x800061 <__DATA_REGION_ORIGIN__+0x1>
     7d2:	10 92 62 00 	sts	0x0062, r1	; 0x800062 <__DATA_REGION_ORIGIN__+0x2>
     7d6:	10 92 63 00 	sts	0x0063, r1	; 0x800063 <__DATA_REGION_ORIGIN__+0x3>
     7da:	10 92 64 00 	sts	0x0064, r1	; 0x800064 <__DATA_REGION_ORIGIN__+0x4>
     7de:	10 92 65 00 	sts	0x0065, r1	; 0x800065 <__DATA_REGION_ORIGIN__+0x5>
     7e2:	10 92 66 00 	sts	0x0066, r1	; 0x800066 <__DATA_REGION_ORIGIN__+0x6>
     7e6:	10 92 67 00 	sts	0x0067, r1	; 0x800067 <__DATA_REGION_ORIGIN__+0x7>
	
}

void ON_MODE_Process (void)
{
	while(flag==1)
     7ea:	80 91 69 00 	lds	r24, 0x0069	; 0x800069 <flag>
     7ee:	81 30       	cpi	r24, 0x01	; 1
     7f0:	09 f4       	brne	.+2      	; 0x7f4 <ON_MODE_Process+0x126>
     7f2:	6e cf       	rjmp	.-292    	; 0x6d0 <ON_MODE_Process+0x2>
				
			}
			counter_for_Timer=0;
		}
	}
}
     7f4:	08 95       	ret

000007f6 <__vector_8>:
#ifndef INTERRUPT_H
#define INTERRUPT_H 
void Temperature_reading(void); 
#endif
ISR (TIMER1_OVF_vect)    // Timer1 ISR
{
     7f6:	1f 92       	push	r1
     7f8:	0f 92       	push	r0
     7fa:	0f b6       	in	r0, 0x3f	; 63
     7fc:	0f 92       	push	r0
     7fe:	11 24       	eor	r1, r1
     800:	2f 93       	push	r18
     802:	3f 93       	push	r19
     804:	4f 93       	push	r20
     806:	5f 93       	push	r21
     808:	6f 93       	push	r22
     80a:	7f 93       	push	r23
     80c:	8f 93       	push	r24
     80e:	9f 93       	push	r25
     810:	af 93       	push	r26
     812:	bf 93       	push	r27
     814:	ef 93       	push	r30
     816:	ff 93       	push	r31
	TCNT1 = 65380;  // for 100 ms at 16 MHz  in Bin "1111 1111 0110 0100" , in Hexa_decimal "FF64"
     818:	84 e6       	ldi	r24, 0x64	; 100
     81a:	9f ef       	ldi	r25, 0xFF	; 255
     81c:	9d bd       	out	0x2d, r25	; 45
     81e:	8c bd       	out	0x2c, r24	; 44
		Temperature_reading();  //read temperature each 100 ms 
     820:	0e 94 39 01 	call	0x272	; 0x272 <Temperature_reading>
	
		}
     824:	ff 91       	pop	r31
     826:	ef 91       	pop	r30
     828:	bf 91       	pop	r27
     82a:	af 91       	pop	r26
     82c:	9f 91       	pop	r25
     82e:	8f 91       	pop	r24
     830:	7f 91       	pop	r23
     832:	6f 91       	pop	r22
     834:	5f 91       	pop	r21
     836:	4f 91       	pop	r20
     838:	3f 91       	pop	r19
     83a:	2f 91       	pop	r18
     83c:	0f 90       	pop	r0
     83e:	0f be       	out	0x3f, r0	; 63
     840:	0f 90       	pop	r0
     842:	1f 90       	pop	r1
     844:	18 95       	reti

00000846 <INT_interrupt>:



void INT_interrupt (void)
{
	TCNT1 = 65380;   // for 100 ms at 16 MHz  in Bin "1111 1111 0110 0100" , in Hexa_decimal "FF64" 
     846:	84 e6       	ldi	r24, 0x64	; 100
     848:	9f ef       	ldi	r25, 0xFF	; 255
     84a:	9d bd       	out	0x2d, r25	; 45
     84c:	8c bd       	out	0x2c, r24	; 44
	TCCR1A = 0x00;
     84e:	1f bc       	out	0x2f, r1	; 47
	TCCR1B = (1<<CS10) | (1<<CS12);;  // Timer mode with 1024 pre_scaler
     850:	85 e0       	ldi	r24, 0x05	; 5
     852:	8e bd       	out	0x2e, r24	; 46
	TIMSK = (1 << TOIE1) ;   // Enable timer1 overflow interrupt(TOIE1)
     854:	84 e0       	ldi	r24, 0x04	; 4
     856:	89 bf       	out	0x39, r24	; 57
	sei();        // Enable global interrupts by setting global interrupt enable bit in SREG
     858:	78 94       	sei
     85a:	08 95       	ret

0000085c <main>:



int main(void)
{
	DATA_DIRECTION_REGISTER();
     85c:	0e 94 a6 00 	call	0x14c	; 0x14c <DATA_DIRECTION_REGISTER>
INT_interrupt();
     860:	0e 94 23 04 	call	0x846	; 0x846 <INT_interrupt>
ADC_init();
     864:	0e 94 91 00 	call	0x122	; 0x122 <ADC_init>
Init_VARIABLES();
     868:	0e 94 d7 00 	call	0x1ae	; 0x1ae <Init_VARIABLES>
    /* Replace with your application code */
    while (1) 
    {
		on_off_mode();
     86c:	0e 94 45 02 	call	0x48a	; 0x48a <on_off_mode>
		if(flag==1)
     870:	80 91 69 00 	lds	r24, 0x0069	; 0x800069 <flag>
     874:	81 30       	cpi	r24, 0x01	; 1
     876:	d1 f7       	brne	.-12     	; 0x86c <main+0x10>
		{
			ON_MODE_Process ();
     878:	0e 94 67 03 	call	0x6ce	; 0x6ce <ON_MODE_Process>
			on_off_mode();
     87c:	0e 94 45 02 	call	0x48a	; 0x48a <on_off_mode>
     880:	f5 cf       	rjmp	.-22     	; 0x86c <main+0x10>

00000882 <__subsf3>:
     882:	50 58       	subi	r21, 0x80	; 128

00000884 <__addsf3>:
     884:	bb 27       	eor	r27, r27
     886:	aa 27       	eor	r26, r26
     888:	0e 94 59 04 	call	0x8b2	; 0x8b2 <__addsf3x>
     88c:	0c 94 cc 05 	jmp	0xb98	; 0xb98 <__fp_round>
     890:	0e 94 be 05 	call	0xb7c	; 0xb7c <__fp_pscA>
     894:	38 f0       	brcs	.+14     	; 0x8a4 <__addsf3+0x20>
     896:	0e 94 c5 05 	call	0xb8a	; 0xb8a <__fp_pscB>
     89a:	20 f0       	brcs	.+8      	; 0x8a4 <__addsf3+0x20>
     89c:	39 f4       	brne	.+14     	; 0x8ac <__addsf3+0x28>
     89e:	9f 3f       	cpi	r25, 0xFF	; 255
     8a0:	19 f4       	brne	.+6      	; 0x8a8 <__addsf3+0x24>
     8a2:	26 f4       	brtc	.+8      	; 0x8ac <__addsf3+0x28>
     8a4:	0c 94 bb 05 	jmp	0xb76	; 0xb76 <__fp_nan>
     8a8:	0e f4       	brtc	.+2      	; 0x8ac <__addsf3+0x28>
     8aa:	e0 95       	com	r30
     8ac:	e7 fb       	bst	r30, 7
     8ae:	0c 94 b5 05 	jmp	0xb6a	; 0xb6a <__fp_inf>

000008b2 <__addsf3x>:
     8b2:	e9 2f       	mov	r30, r25
     8b4:	0e 94 dd 05 	call	0xbba	; 0xbba <__fp_split3>
     8b8:	58 f3       	brcs	.-42     	; 0x890 <__addsf3+0xc>
     8ba:	ba 17       	cp	r27, r26
     8bc:	62 07       	cpc	r22, r18
     8be:	73 07       	cpc	r23, r19
     8c0:	84 07       	cpc	r24, r20
     8c2:	95 07       	cpc	r25, r21
     8c4:	20 f0       	brcs	.+8      	; 0x8ce <__addsf3x+0x1c>
     8c6:	79 f4       	brne	.+30     	; 0x8e6 <__addsf3x+0x34>
     8c8:	a6 f5       	brtc	.+104    	; 0x932 <__addsf3x+0x80>
     8ca:	0c 94 ff 05 	jmp	0xbfe	; 0xbfe <__fp_zero>
     8ce:	0e f4       	brtc	.+2      	; 0x8d2 <__addsf3x+0x20>
     8d0:	e0 95       	com	r30
     8d2:	0b 2e       	mov	r0, r27
     8d4:	ba 2f       	mov	r27, r26
     8d6:	a0 2d       	mov	r26, r0
     8d8:	0b 01       	movw	r0, r22
     8da:	b9 01       	movw	r22, r18
     8dc:	90 01       	movw	r18, r0
     8de:	0c 01       	movw	r0, r24
     8e0:	ca 01       	movw	r24, r20
     8e2:	a0 01       	movw	r20, r0
     8e4:	11 24       	eor	r1, r1
     8e6:	ff 27       	eor	r31, r31
     8e8:	59 1b       	sub	r21, r25
     8ea:	99 f0       	breq	.+38     	; 0x912 <__addsf3x+0x60>
     8ec:	59 3f       	cpi	r21, 0xF9	; 249
     8ee:	50 f4       	brcc	.+20     	; 0x904 <__addsf3x+0x52>
     8f0:	50 3e       	cpi	r21, 0xE0	; 224
     8f2:	68 f1       	brcs	.+90     	; 0x94e <__addsf3x+0x9c>
     8f4:	1a 16       	cp	r1, r26
     8f6:	f0 40       	sbci	r31, 0x00	; 0
     8f8:	a2 2f       	mov	r26, r18
     8fa:	23 2f       	mov	r18, r19
     8fc:	34 2f       	mov	r19, r20
     8fe:	44 27       	eor	r20, r20
     900:	58 5f       	subi	r21, 0xF8	; 248
     902:	f3 cf       	rjmp	.-26     	; 0x8ea <__addsf3x+0x38>
     904:	46 95       	lsr	r20
     906:	37 95       	ror	r19
     908:	27 95       	ror	r18
     90a:	a7 95       	ror	r26
     90c:	f0 40       	sbci	r31, 0x00	; 0
     90e:	53 95       	inc	r21
     910:	c9 f7       	brne	.-14     	; 0x904 <__addsf3x+0x52>
     912:	7e f4       	brtc	.+30     	; 0x932 <__addsf3x+0x80>
     914:	1f 16       	cp	r1, r31
     916:	ba 0b       	sbc	r27, r26
     918:	62 0b       	sbc	r22, r18
     91a:	73 0b       	sbc	r23, r19
     91c:	84 0b       	sbc	r24, r20
     91e:	ba f0       	brmi	.+46     	; 0x94e <__addsf3x+0x9c>
     920:	91 50       	subi	r25, 0x01	; 1
     922:	a1 f0       	breq	.+40     	; 0x94c <__addsf3x+0x9a>
     924:	ff 0f       	add	r31, r31
     926:	bb 1f       	adc	r27, r27
     928:	66 1f       	adc	r22, r22
     92a:	77 1f       	adc	r23, r23
     92c:	88 1f       	adc	r24, r24
     92e:	c2 f7       	brpl	.-16     	; 0x920 <__addsf3x+0x6e>
     930:	0e c0       	rjmp	.+28     	; 0x94e <__addsf3x+0x9c>
     932:	ba 0f       	add	r27, r26
     934:	62 1f       	adc	r22, r18
     936:	73 1f       	adc	r23, r19
     938:	84 1f       	adc	r24, r20
     93a:	48 f4       	brcc	.+18     	; 0x94e <__addsf3x+0x9c>
     93c:	87 95       	ror	r24
     93e:	77 95       	ror	r23
     940:	67 95       	ror	r22
     942:	b7 95       	ror	r27
     944:	f7 95       	ror	r31
     946:	9e 3f       	cpi	r25, 0xFE	; 254
     948:	08 f0       	brcs	.+2      	; 0x94c <__addsf3x+0x9a>
     94a:	b0 cf       	rjmp	.-160    	; 0x8ac <__addsf3+0x28>
     94c:	93 95       	inc	r25
     94e:	88 0f       	add	r24, r24
     950:	08 f0       	brcs	.+2      	; 0x954 <__addsf3x+0xa2>
     952:	99 27       	eor	r25, r25
     954:	ee 0f       	add	r30, r30
     956:	97 95       	ror	r25
     958:	87 95       	ror	r24
     95a:	08 95       	ret

0000095c <__cmpsf2>:
     95c:	0e 94 91 05 	call	0xb22	; 0xb22 <__fp_cmp>
     960:	08 f4       	brcc	.+2      	; 0x964 <__cmpsf2+0x8>
     962:	81 e0       	ldi	r24, 0x01	; 1
     964:	08 95       	ret

00000966 <__divsf3>:
     966:	0e 94 c7 04 	call	0x98e	; 0x98e <__divsf3x>
     96a:	0c 94 cc 05 	jmp	0xb98	; 0xb98 <__fp_round>
     96e:	0e 94 c5 05 	call	0xb8a	; 0xb8a <__fp_pscB>
     972:	58 f0       	brcs	.+22     	; 0x98a <__divsf3+0x24>
     974:	0e 94 be 05 	call	0xb7c	; 0xb7c <__fp_pscA>
     978:	40 f0       	brcs	.+16     	; 0x98a <__divsf3+0x24>
     97a:	29 f4       	brne	.+10     	; 0x986 <__divsf3+0x20>
     97c:	5f 3f       	cpi	r21, 0xFF	; 255
     97e:	29 f0       	breq	.+10     	; 0x98a <__divsf3+0x24>
     980:	0c 94 b5 05 	jmp	0xb6a	; 0xb6a <__fp_inf>
     984:	51 11       	cpse	r21, r1
     986:	0c 94 00 06 	jmp	0xc00	; 0xc00 <__fp_szero>
     98a:	0c 94 bb 05 	jmp	0xb76	; 0xb76 <__fp_nan>

0000098e <__divsf3x>:
     98e:	0e 94 dd 05 	call	0xbba	; 0xbba <__fp_split3>
     992:	68 f3       	brcs	.-38     	; 0x96e <__divsf3+0x8>

00000994 <__divsf3_pse>:
     994:	99 23       	and	r25, r25
     996:	b1 f3       	breq	.-20     	; 0x984 <__divsf3+0x1e>
     998:	55 23       	and	r21, r21
     99a:	91 f3       	breq	.-28     	; 0x980 <__divsf3+0x1a>
     99c:	95 1b       	sub	r25, r21
     99e:	55 0b       	sbc	r21, r21
     9a0:	bb 27       	eor	r27, r27
     9a2:	aa 27       	eor	r26, r26
     9a4:	62 17       	cp	r22, r18
     9a6:	73 07       	cpc	r23, r19
     9a8:	84 07       	cpc	r24, r20
     9aa:	38 f0       	brcs	.+14     	; 0x9ba <__divsf3_pse+0x26>
     9ac:	9f 5f       	subi	r25, 0xFF	; 255
     9ae:	5f 4f       	sbci	r21, 0xFF	; 255
     9b0:	22 0f       	add	r18, r18
     9b2:	33 1f       	adc	r19, r19
     9b4:	44 1f       	adc	r20, r20
     9b6:	aa 1f       	adc	r26, r26
     9b8:	a9 f3       	breq	.-22     	; 0x9a4 <__divsf3_pse+0x10>
     9ba:	35 d0       	rcall	.+106    	; 0xa26 <__divsf3_pse+0x92>
     9bc:	0e 2e       	mov	r0, r30
     9be:	3a f0       	brmi	.+14     	; 0x9ce <__divsf3_pse+0x3a>
     9c0:	e0 e8       	ldi	r30, 0x80	; 128
     9c2:	32 d0       	rcall	.+100    	; 0xa28 <__divsf3_pse+0x94>
     9c4:	91 50       	subi	r25, 0x01	; 1
     9c6:	50 40       	sbci	r21, 0x00	; 0
     9c8:	e6 95       	lsr	r30
     9ca:	00 1c       	adc	r0, r0
     9cc:	ca f7       	brpl	.-14     	; 0x9c0 <__divsf3_pse+0x2c>
     9ce:	2b d0       	rcall	.+86     	; 0xa26 <__divsf3_pse+0x92>
     9d0:	fe 2f       	mov	r31, r30
     9d2:	29 d0       	rcall	.+82     	; 0xa26 <__divsf3_pse+0x92>
     9d4:	66 0f       	add	r22, r22
     9d6:	77 1f       	adc	r23, r23
     9d8:	88 1f       	adc	r24, r24
     9da:	bb 1f       	adc	r27, r27
     9dc:	26 17       	cp	r18, r22
     9de:	37 07       	cpc	r19, r23
     9e0:	48 07       	cpc	r20, r24
     9e2:	ab 07       	cpc	r26, r27
     9e4:	b0 e8       	ldi	r27, 0x80	; 128
     9e6:	09 f0       	breq	.+2      	; 0x9ea <__divsf3_pse+0x56>
     9e8:	bb 0b       	sbc	r27, r27
     9ea:	80 2d       	mov	r24, r0
     9ec:	bf 01       	movw	r22, r30
     9ee:	ff 27       	eor	r31, r31
     9f0:	93 58       	subi	r25, 0x83	; 131
     9f2:	5f 4f       	sbci	r21, 0xFF	; 255
     9f4:	3a f0       	brmi	.+14     	; 0xa04 <__divsf3_pse+0x70>
     9f6:	9e 3f       	cpi	r25, 0xFE	; 254
     9f8:	51 05       	cpc	r21, r1
     9fa:	78 f0       	brcs	.+30     	; 0xa1a <__divsf3_pse+0x86>
     9fc:	0c 94 b5 05 	jmp	0xb6a	; 0xb6a <__fp_inf>
     a00:	0c 94 00 06 	jmp	0xc00	; 0xc00 <__fp_szero>
     a04:	5f 3f       	cpi	r21, 0xFF	; 255
     a06:	e4 f3       	brlt	.-8      	; 0xa00 <__divsf3_pse+0x6c>
     a08:	98 3e       	cpi	r25, 0xE8	; 232
     a0a:	d4 f3       	brlt	.-12     	; 0xa00 <__divsf3_pse+0x6c>
     a0c:	86 95       	lsr	r24
     a0e:	77 95       	ror	r23
     a10:	67 95       	ror	r22
     a12:	b7 95       	ror	r27
     a14:	f7 95       	ror	r31
     a16:	9f 5f       	subi	r25, 0xFF	; 255
     a18:	c9 f7       	brne	.-14     	; 0xa0c <__divsf3_pse+0x78>
     a1a:	88 0f       	add	r24, r24
     a1c:	91 1d       	adc	r25, r1
     a1e:	96 95       	lsr	r25
     a20:	87 95       	ror	r24
     a22:	97 f9       	bld	r25, 7
     a24:	08 95       	ret
     a26:	e1 e0       	ldi	r30, 0x01	; 1
     a28:	66 0f       	add	r22, r22
     a2a:	77 1f       	adc	r23, r23
     a2c:	88 1f       	adc	r24, r24
     a2e:	bb 1f       	adc	r27, r27
     a30:	62 17       	cp	r22, r18
     a32:	73 07       	cpc	r23, r19
     a34:	84 07       	cpc	r24, r20
     a36:	ba 07       	cpc	r27, r26
     a38:	20 f0       	brcs	.+8      	; 0xa42 <__divsf3_pse+0xae>
     a3a:	62 1b       	sub	r22, r18
     a3c:	73 0b       	sbc	r23, r19
     a3e:	84 0b       	sbc	r24, r20
     a40:	ba 0b       	sbc	r27, r26
     a42:	ee 1f       	adc	r30, r30
     a44:	88 f7       	brcc	.-30     	; 0xa28 <__divsf3_pse+0x94>
     a46:	e0 95       	com	r30
     a48:	08 95       	ret

00000a4a <__fixunssfsi>:
     a4a:	0e 94 e5 05 	call	0xbca	; 0xbca <__fp_splitA>
     a4e:	88 f0       	brcs	.+34     	; 0xa72 <__fixunssfsi+0x28>
     a50:	9f 57       	subi	r25, 0x7F	; 127
     a52:	98 f0       	brcs	.+38     	; 0xa7a <__fixunssfsi+0x30>
     a54:	b9 2f       	mov	r27, r25
     a56:	99 27       	eor	r25, r25
     a58:	b7 51       	subi	r27, 0x17	; 23
     a5a:	b0 f0       	brcs	.+44     	; 0xa88 <__fixunssfsi+0x3e>
     a5c:	e1 f0       	breq	.+56     	; 0xa96 <__fixunssfsi+0x4c>
     a5e:	66 0f       	add	r22, r22
     a60:	77 1f       	adc	r23, r23
     a62:	88 1f       	adc	r24, r24
     a64:	99 1f       	adc	r25, r25
     a66:	1a f0       	brmi	.+6      	; 0xa6e <__fixunssfsi+0x24>
     a68:	ba 95       	dec	r27
     a6a:	c9 f7       	brne	.-14     	; 0xa5e <__fixunssfsi+0x14>
     a6c:	14 c0       	rjmp	.+40     	; 0xa96 <__fixunssfsi+0x4c>
     a6e:	b1 30       	cpi	r27, 0x01	; 1
     a70:	91 f0       	breq	.+36     	; 0xa96 <__fixunssfsi+0x4c>
     a72:	0e 94 ff 05 	call	0xbfe	; 0xbfe <__fp_zero>
     a76:	b1 e0       	ldi	r27, 0x01	; 1
     a78:	08 95       	ret
     a7a:	0c 94 ff 05 	jmp	0xbfe	; 0xbfe <__fp_zero>
     a7e:	67 2f       	mov	r22, r23
     a80:	78 2f       	mov	r23, r24
     a82:	88 27       	eor	r24, r24
     a84:	b8 5f       	subi	r27, 0xF8	; 248
     a86:	39 f0       	breq	.+14     	; 0xa96 <__fixunssfsi+0x4c>
     a88:	b9 3f       	cpi	r27, 0xF9	; 249
     a8a:	cc f3       	brlt	.-14     	; 0xa7e <__fixunssfsi+0x34>
     a8c:	86 95       	lsr	r24
     a8e:	77 95       	ror	r23
     a90:	67 95       	ror	r22
     a92:	b3 95       	inc	r27
     a94:	d9 f7       	brne	.-10     	; 0xa8c <__fixunssfsi+0x42>
     a96:	3e f4       	brtc	.+14     	; 0xaa6 <__fixunssfsi+0x5c>
     a98:	90 95       	com	r25
     a9a:	80 95       	com	r24
     a9c:	70 95       	com	r23
     a9e:	61 95       	neg	r22
     aa0:	7f 4f       	sbci	r23, 0xFF	; 255
     aa2:	8f 4f       	sbci	r24, 0xFF	; 255
     aa4:	9f 4f       	sbci	r25, 0xFF	; 255
     aa6:	08 95       	ret

00000aa8 <__floatunsisf>:
     aa8:	e8 94       	clt
     aaa:	09 c0       	rjmp	.+18     	; 0xabe <__floatsisf+0x12>

00000aac <__floatsisf>:
     aac:	97 fb       	bst	r25, 7
     aae:	3e f4       	brtc	.+14     	; 0xabe <__floatsisf+0x12>
     ab0:	90 95       	com	r25
     ab2:	80 95       	com	r24
     ab4:	70 95       	com	r23
     ab6:	61 95       	neg	r22
     ab8:	7f 4f       	sbci	r23, 0xFF	; 255
     aba:	8f 4f       	sbci	r24, 0xFF	; 255
     abc:	9f 4f       	sbci	r25, 0xFF	; 255
     abe:	99 23       	and	r25, r25
     ac0:	a9 f0       	breq	.+42     	; 0xaec <__floatsisf+0x40>
     ac2:	f9 2f       	mov	r31, r25
     ac4:	96 e9       	ldi	r25, 0x96	; 150
     ac6:	bb 27       	eor	r27, r27
     ac8:	93 95       	inc	r25
     aca:	f6 95       	lsr	r31
     acc:	87 95       	ror	r24
     ace:	77 95       	ror	r23
     ad0:	67 95       	ror	r22
     ad2:	b7 95       	ror	r27
     ad4:	f1 11       	cpse	r31, r1
     ad6:	f8 cf       	rjmp	.-16     	; 0xac8 <__floatsisf+0x1c>
     ad8:	fa f4       	brpl	.+62     	; 0xb18 <__floatsisf+0x6c>
     ada:	bb 0f       	add	r27, r27
     adc:	11 f4       	brne	.+4      	; 0xae2 <__floatsisf+0x36>
     ade:	60 ff       	sbrs	r22, 0
     ae0:	1b c0       	rjmp	.+54     	; 0xb18 <__floatsisf+0x6c>
     ae2:	6f 5f       	subi	r22, 0xFF	; 255
     ae4:	7f 4f       	sbci	r23, 0xFF	; 255
     ae6:	8f 4f       	sbci	r24, 0xFF	; 255
     ae8:	9f 4f       	sbci	r25, 0xFF	; 255
     aea:	16 c0       	rjmp	.+44     	; 0xb18 <__floatsisf+0x6c>
     aec:	88 23       	and	r24, r24
     aee:	11 f0       	breq	.+4      	; 0xaf4 <__floatsisf+0x48>
     af0:	96 e9       	ldi	r25, 0x96	; 150
     af2:	11 c0       	rjmp	.+34     	; 0xb16 <__floatsisf+0x6a>
     af4:	77 23       	and	r23, r23
     af6:	21 f0       	breq	.+8      	; 0xb00 <__floatsisf+0x54>
     af8:	9e e8       	ldi	r25, 0x8E	; 142
     afa:	87 2f       	mov	r24, r23
     afc:	76 2f       	mov	r23, r22
     afe:	05 c0       	rjmp	.+10     	; 0xb0a <__floatsisf+0x5e>
     b00:	66 23       	and	r22, r22
     b02:	71 f0       	breq	.+28     	; 0xb20 <__floatsisf+0x74>
     b04:	96 e8       	ldi	r25, 0x86	; 134
     b06:	86 2f       	mov	r24, r22
     b08:	70 e0       	ldi	r23, 0x00	; 0
     b0a:	60 e0       	ldi	r22, 0x00	; 0
     b0c:	2a f0       	brmi	.+10     	; 0xb18 <__floatsisf+0x6c>
     b0e:	9a 95       	dec	r25
     b10:	66 0f       	add	r22, r22
     b12:	77 1f       	adc	r23, r23
     b14:	88 1f       	adc	r24, r24
     b16:	da f7       	brpl	.-10     	; 0xb0e <__floatsisf+0x62>
     b18:	88 0f       	add	r24, r24
     b1a:	96 95       	lsr	r25
     b1c:	87 95       	ror	r24
     b1e:	97 f9       	bld	r25, 7
     b20:	08 95       	ret

00000b22 <__fp_cmp>:
     b22:	99 0f       	add	r25, r25
     b24:	00 08       	sbc	r0, r0
     b26:	55 0f       	add	r21, r21
     b28:	aa 0b       	sbc	r26, r26
     b2a:	e0 e8       	ldi	r30, 0x80	; 128
     b2c:	fe ef       	ldi	r31, 0xFE	; 254
     b2e:	16 16       	cp	r1, r22
     b30:	17 06       	cpc	r1, r23
     b32:	e8 07       	cpc	r30, r24
     b34:	f9 07       	cpc	r31, r25
     b36:	c0 f0       	brcs	.+48     	; 0xb68 <__fp_cmp+0x46>
     b38:	12 16       	cp	r1, r18
     b3a:	13 06       	cpc	r1, r19
     b3c:	e4 07       	cpc	r30, r20
     b3e:	f5 07       	cpc	r31, r21
     b40:	98 f0       	brcs	.+38     	; 0xb68 <__fp_cmp+0x46>
     b42:	62 1b       	sub	r22, r18
     b44:	73 0b       	sbc	r23, r19
     b46:	84 0b       	sbc	r24, r20
     b48:	95 0b       	sbc	r25, r21
     b4a:	39 f4       	brne	.+14     	; 0xb5a <__fp_cmp+0x38>
     b4c:	0a 26       	eor	r0, r26
     b4e:	61 f0       	breq	.+24     	; 0xb68 <__fp_cmp+0x46>
     b50:	23 2b       	or	r18, r19
     b52:	24 2b       	or	r18, r20
     b54:	25 2b       	or	r18, r21
     b56:	21 f4       	brne	.+8      	; 0xb60 <__fp_cmp+0x3e>
     b58:	08 95       	ret
     b5a:	0a 26       	eor	r0, r26
     b5c:	09 f4       	brne	.+2      	; 0xb60 <__fp_cmp+0x3e>
     b5e:	a1 40       	sbci	r26, 0x01	; 1
     b60:	a6 95       	lsr	r26
     b62:	8f ef       	ldi	r24, 0xFF	; 255
     b64:	81 1d       	adc	r24, r1
     b66:	81 1d       	adc	r24, r1
     b68:	08 95       	ret

00000b6a <__fp_inf>:
     b6a:	97 f9       	bld	r25, 7
     b6c:	9f 67       	ori	r25, 0x7F	; 127
     b6e:	80 e8       	ldi	r24, 0x80	; 128
     b70:	70 e0       	ldi	r23, 0x00	; 0
     b72:	60 e0       	ldi	r22, 0x00	; 0
     b74:	08 95       	ret

00000b76 <__fp_nan>:
     b76:	9f ef       	ldi	r25, 0xFF	; 255
     b78:	80 ec       	ldi	r24, 0xC0	; 192
     b7a:	08 95       	ret

00000b7c <__fp_pscA>:
     b7c:	00 24       	eor	r0, r0
     b7e:	0a 94       	dec	r0
     b80:	16 16       	cp	r1, r22
     b82:	17 06       	cpc	r1, r23
     b84:	18 06       	cpc	r1, r24
     b86:	09 06       	cpc	r0, r25
     b88:	08 95       	ret

00000b8a <__fp_pscB>:
     b8a:	00 24       	eor	r0, r0
     b8c:	0a 94       	dec	r0
     b8e:	12 16       	cp	r1, r18
     b90:	13 06       	cpc	r1, r19
     b92:	14 06       	cpc	r1, r20
     b94:	05 06       	cpc	r0, r21
     b96:	08 95       	ret

00000b98 <__fp_round>:
     b98:	09 2e       	mov	r0, r25
     b9a:	03 94       	inc	r0
     b9c:	00 0c       	add	r0, r0
     b9e:	11 f4       	brne	.+4      	; 0xba4 <__fp_round+0xc>
     ba0:	88 23       	and	r24, r24
     ba2:	52 f0       	brmi	.+20     	; 0xbb8 <__fp_round+0x20>
     ba4:	bb 0f       	add	r27, r27
     ba6:	40 f4       	brcc	.+16     	; 0xbb8 <__fp_round+0x20>
     ba8:	bf 2b       	or	r27, r31
     baa:	11 f4       	brne	.+4      	; 0xbb0 <__fp_round+0x18>
     bac:	60 ff       	sbrs	r22, 0
     bae:	04 c0       	rjmp	.+8      	; 0xbb8 <__fp_round+0x20>
     bb0:	6f 5f       	subi	r22, 0xFF	; 255
     bb2:	7f 4f       	sbci	r23, 0xFF	; 255
     bb4:	8f 4f       	sbci	r24, 0xFF	; 255
     bb6:	9f 4f       	sbci	r25, 0xFF	; 255
     bb8:	08 95       	ret

00000bba <__fp_split3>:
     bba:	57 fd       	sbrc	r21, 7
     bbc:	90 58       	subi	r25, 0x80	; 128
     bbe:	44 0f       	add	r20, r20
     bc0:	55 1f       	adc	r21, r21
     bc2:	59 f0       	breq	.+22     	; 0xbda <__fp_splitA+0x10>
     bc4:	5f 3f       	cpi	r21, 0xFF	; 255
     bc6:	71 f0       	breq	.+28     	; 0xbe4 <__fp_splitA+0x1a>
     bc8:	47 95       	ror	r20

00000bca <__fp_splitA>:
     bca:	88 0f       	add	r24, r24
     bcc:	97 fb       	bst	r25, 7
     bce:	99 1f       	adc	r25, r25
     bd0:	61 f0       	breq	.+24     	; 0xbea <__fp_splitA+0x20>
     bd2:	9f 3f       	cpi	r25, 0xFF	; 255
     bd4:	79 f0       	breq	.+30     	; 0xbf4 <__fp_splitA+0x2a>
     bd6:	87 95       	ror	r24
     bd8:	08 95       	ret
     bda:	12 16       	cp	r1, r18
     bdc:	13 06       	cpc	r1, r19
     bde:	14 06       	cpc	r1, r20
     be0:	55 1f       	adc	r21, r21
     be2:	f2 cf       	rjmp	.-28     	; 0xbc8 <__fp_split3+0xe>
     be4:	46 95       	lsr	r20
     be6:	f1 df       	rcall	.-30     	; 0xbca <__fp_splitA>
     be8:	08 c0       	rjmp	.+16     	; 0xbfa <__fp_splitA+0x30>
     bea:	16 16       	cp	r1, r22
     bec:	17 06       	cpc	r1, r23
     bee:	18 06       	cpc	r1, r24
     bf0:	99 1f       	adc	r25, r25
     bf2:	f1 cf       	rjmp	.-30     	; 0xbd6 <__fp_splitA+0xc>
     bf4:	86 95       	lsr	r24
     bf6:	71 05       	cpc	r23, r1
     bf8:	61 05       	cpc	r22, r1
     bfa:	08 94       	sec
     bfc:	08 95       	ret

00000bfe <__fp_zero>:
     bfe:	e8 94       	clt

00000c00 <__fp_szero>:
     c00:	bb 27       	eor	r27, r27
     c02:	66 27       	eor	r22, r22
     c04:	77 27       	eor	r23, r23
     c06:	cb 01       	movw	r24, r22
     c08:	97 f9       	bld	r25, 7
     c0a:	08 95       	ret

00000c0c <__mulsf3>:
     c0c:	0e 94 19 06 	call	0xc32	; 0xc32 <__mulsf3x>
     c10:	0c 94 cc 05 	jmp	0xb98	; 0xb98 <__fp_round>
     c14:	0e 94 be 05 	call	0xb7c	; 0xb7c <__fp_pscA>
     c18:	38 f0       	brcs	.+14     	; 0xc28 <__mulsf3+0x1c>
     c1a:	0e 94 c5 05 	call	0xb8a	; 0xb8a <__fp_pscB>
     c1e:	20 f0       	brcs	.+8      	; 0xc28 <__mulsf3+0x1c>
     c20:	95 23       	and	r25, r21
     c22:	11 f0       	breq	.+4      	; 0xc28 <__mulsf3+0x1c>
     c24:	0c 94 b5 05 	jmp	0xb6a	; 0xb6a <__fp_inf>
     c28:	0c 94 bb 05 	jmp	0xb76	; 0xb76 <__fp_nan>
     c2c:	11 24       	eor	r1, r1
     c2e:	0c 94 00 06 	jmp	0xc00	; 0xc00 <__fp_szero>

00000c32 <__mulsf3x>:
     c32:	0e 94 dd 05 	call	0xbba	; 0xbba <__fp_split3>
     c36:	70 f3       	brcs	.-36     	; 0xc14 <__mulsf3+0x8>

00000c38 <__mulsf3_pse>:
     c38:	95 9f       	mul	r25, r21
     c3a:	c1 f3       	breq	.-16     	; 0xc2c <__mulsf3+0x20>
     c3c:	95 0f       	add	r25, r21
     c3e:	50 e0       	ldi	r21, 0x00	; 0
     c40:	55 1f       	adc	r21, r21
     c42:	62 9f       	mul	r22, r18
     c44:	f0 01       	movw	r30, r0
     c46:	72 9f       	mul	r23, r18
     c48:	bb 27       	eor	r27, r27
     c4a:	f0 0d       	add	r31, r0
     c4c:	b1 1d       	adc	r27, r1
     c4e:	63 9f       	mul	r22, r19
     c50:	aa 27       	eor	r26, r26
     c52:	f0 0d       	add	r31, r0
     c54:	b1 1d       	adc	r27, r1
     c56:	aa 1f       	adc	r26, r26
     c58:	64 9f       	mul	r22, r20
     c5a:	66 27       	eor	r22, r22
     c5c:	b0 0d       	add	r27, r0
     c5e:	a1 1d       	adc	r26, r1
     c60:	66 1f       	adc	r22, r22
     c62:	82 9f       	mul	r24, r18
     c64:	22 27       	eor	r18, r18
     c66:	b0 0d       	add	r27, r0
     c68:	a1 1d       	adc	r26, r1
     c6a:	62 1f       	adc	r22, r18
     c6c:	73 9f       	mul	r23, r19
     c6e:	b0 0d       	add	r27, r0
     c70:	a1 1d       	adc	r26, r1
     c72:	62 1f       	adc	r22, r18
     c74:	83 9f       	mul	r24, r19
     c76:	a0 0d       	add	r26, r0
     c78:	61 1d       	adc	r22, r1
     c7a:	22 1f       	adc	r18, r18
     c7c:	74 9f       	mul	r23, r20
     c7e:	33 27       	eor	r19, r19
     c80:	a0 0d       	add	r26, r0
     c82:	61 1d       	adc	r22, r1
     c84:	23 1f       	adc	r18, r19
     c86:	84 9f       	mul	r24, r20
     c88:	60 0d       	add	r22, r0
     c8a:	21 1d       	adc	r18, r1
     c8c:	82 2f       	mov	r24, r18
     c8e:	76 2f       	mov	r23, r22
     c90:	6a 2f       	mov	r22, r26
     c92:	11 24       	eor	r1, r1
     c94:	9f 57       	subi	r25, 0x7F	; 127
     c96:	50 40       	sbci	r21, 0x00	; 0
     c98:	9a f0       	brmi	.+38     	; 0xcc0 <__mulsf3_pse+0x88>
     c9a:	f1 f0       	breq	.+60     	; 0xcd8 <__mulsf3_pse+0xa0>
     c9c:	88 23       	and	r24, r24
     c9e:	4a f0       	brmi	.+18     	; 0xcb2 <__mulsf3_pse+0x7a>
     ca0:	ee 0f       	add	r30, r30
     ca2:	ff 1f       	adc	r31, r31
     ca4:	bb 1f       	adc	r27, r27
     ca6:	66 1f       	adc	r22, r22
     ca8:	77 1f       	adc	r23, r23
     caa:	88 1f       	adc	r24, r24
     cac:	91 50       	subi	r25, 0x01	; 1
     cae:	50 40       	sbci	r21, 0x00	; 0
     cb0:	a9 f7       	brne	.-22     	; 0xc9c <__mulsf3_pse+0x64>
     cb2:	9e 3f       	cpi	r25, 0xFE	; 254
     cb4:	51 05       	cpc	r21, r1
     cb6:	80 f0       	brcs	.+32     	; 0xcd8 <__mulsf3_pse+0xa0>
     cb8:	0c 94 b5 05 	jmp	0xb6a	; 0xb6a <__fp_inf>
     cbc:	0c 94 00 06 	jmp	0xc00	; 0xc00 <__fp_szero>
     cc0:	5f 3f       	cpi	r21, 0xFF	; 255
     cc2:	e4 f3       	brlt	.-8      	; 0xcbc <__mulsf3_pse+0x84>
     cc4:	98 3e       	cpi	r25, 0xE8	; 232
     cc6:	d4 f3       	brlt	.-12     	; 0xcbc <__mulsf3_pse+0x84>
     cc8:	86 95       	lsr	r24
     cca:	77 95       	ror	r23
     ccc:	67 95       	ror	r22
     cce:	b7 95       	ror	r27
     cd0:	f7 95       	ror	r31
     cd2:	e7 95       	ror	r30
     cd4:	9f 5f       	subi	r25, 0xFF	; 255
     cd6:	c1 f7       	brne	.-16     	; 0xcc8 <__mulsf3_pse+0x90>
     cd8:	fe 2b       	or	r31, r30
     cda:	88 0f       	add	r24, r24
     cdc:	91 1d       	adc	r25, r1
     cde:	96 95       	lsr	r25
     ce0:	87 95       	ror	r24
     ce2:	97 f9       	bld	r25, 7
     ce4:	08 95       	ret

00000ce6 <pow>:
     ce6:	fa 01       	movw	r30, r20
     ce8:	ee 0f       	add	r30, r30
     cea:	ff 1f       	adc	r31, r31
     cec:	30 96       	adiw	r30, 0x00	; 0
     cee:	21 05       	cpc	r18, r1
     cf0:	31 05       	cpc	r19, r1
     cf2:	a1 f1       	breq	.+104    	; 0xd5c <pow+0x76>
     cf4:	61 15       	cp	r22, r1
     cf6:	71 05       	cpc	r23, r1
     cf8:	61 f4       	brne	.+24     	; 0xd12 <pow+0x2c>
     cfa:	80 38       	cpi	r24, 0x80	; 128
     cfc:	bf e3       	ldi	r27, 0x3F	; 63
     cfe:	9b 07       	cpc	r25, r27
     d00:	49 f1       	breq	.+82     	; 0xd54 <pow+0x6e>
     d02:	68 94       	set
     d04:	90 38       	cpi	r25, 0x80	; 128
     d06:	81 05       	cpc	r24, r1
     d08:	61 f0       	breq	.+24     	; 0xd22 <pow+0x3c>
     d0a:	80 38       	cpi	r24, 0x80	; 128
     d0c:	bf ef       	ldi	r27, 0xFF	; 255
     d0e:	9b 07       	cpc	r25, r27
     d10:	41 f0       	breq	.+16     	; 0xd22 <pow+0x3c>
     d12:	99 23       	and	r25, r25
     d14:	4a f5       	brpl	.+82     	; 0xd68 <pow+0x82>
     d16:	ff 3f       	cpi	r31, 0xFF	; 255
     d18:	e1 05       	cpc	r30, r1
     d1a:	31 05       	cpc	r19, r1
     d1c:	21 05       	cpc	r18, r1
     d1e:	19 f1       	breq	.+70     	; 0xd66 <pow+0x80>
     d20:	e8 94       	clt
     d22:	08 94       	sec
     d24:	e7 95       	ror	r30
     d26:	d9 01       	movw	r26, r18
     d28:	aa 23       	and	r26, r26
     d2a:	29 f4       	brne	.+10     	; 0xd36 <pow+0x50>
     d2c:	ab 2f       	mov	r26, r27
     d2e:	be 2f       	mov	r27, r30
     d30:	f8 5f       	subi	r31, 0xF8	; 248
     d32:	d0 f3       	brcs	.-12     	; 0xd28 <pow+0x42>
     d34:	10 c0       	rjmp	.+32     	; 0xd56 <pow+0x70>
     d36:	ff 5f       	subi	r31, 0xFF	; 255
     d38:	70 f4       	brcc	.+28     	; 0xd56 <pow+0x70>
     d3a:	a6 95       	lsr	r26
     d3c:	e0 f7       	brcc	.-8      	; 0xd36 <pow+0x50>
     d3e:	f7 39       	cpi	r31, 0x97	; 151
     d40:	50 f0       	brcs	.+20     	; 0xd56 <pow+0x70>
     d42:	19 f0       	breq	.+6      	; 0xd4a <pow+0x64>
     d44:	ff 3a       	cpi	r31, 0xAF	; 175
     d46:	38 f4       	brcc	.+14     	; 0xd56 <pow+0x70>
     d48:	9f 77       	andi	r25, 0x7F	; 127
     d4a:	9f 93       	push	r25
     d4c:	0d d0       	rcall	.+26     	; 0xd68 <pow+0x82>
     d4e:	0f 90       	pop	r0
     d50:	07 fc       	sbrc	r0, 7
     d52:	90 58       	subi	r25, 0x80	; 128
     d54:	08 95       	ret
     d56:	46 f0       	brts	.+16     	; 0xd68 <pow+0x82>
     d58:	0c 94 bb 05 	jmp	0xb76	; 0xb76 <__fp_nan>
     d5c:	60 e0       	ldi	r22, 0x00	; 0
     d5e:	70 e0       	ldi	r23, 0x00	; 0
     d60:	80 e8       	ldi	r24, 0x80	; 128
     d62:	9f e3       	ldi	r25, 0x3F	; 63
     d64:	08 95       	ret
     d66:	4f e7       	ldi	r20, 0x7F	; 127
     d68:	9f 77       	andi	r25, 0x7F	; 127
     d6a:	5f 93       	push	r21
     d6c:	4f 93       	push	r20
     d6e:	3f 93       	push	r19
     d70:	2f 93       	push	r18
     d72:	0e 94 6e 07 	call	0xedc	; 0xedc <log>
     d76:	2f 91       	pop	r18
     d78:	3f 91       	pop	r19
     d7a:	4f 91       	pop	r20
     d7c:	5f 91       	pop	r21
     d7e:	0e 94 06 06 	call	0xc0c	; 0xc0c <__mulsf3>
     d82:	0c 94 cb 06 	jmp	0xd96	; 0xd96 <exp>
     d86:	29 f4       	brne	.+10     	; 0xd92 <pow+0xac>
     d88:	16 f0       	brts	.+4      	; 0xd8e <pow+0xa8>
     d8a:	0c 94 b5 05 	jmp	0xb6a	; 0xb6a <__fp_inf>
     d8e:	0c 94 ff 05 	jmp	0xbfe	; 0xbfe <__fp_zero>
     d92:	0c 94 bb 05 	jmp	0xb76	; 0xb76 <__fp_nan>

00000d96 <exp>:
     d96:	0e 94 e5 05 	call	0xbca	; 0xbca <__fp_splitA>
     d9a:	a8 f3       	brcs	.-22     	; 0xd86 <pow+0xa0>
     d9c:	96 38       	cpi	r25, 0x86	; 134
     d9e:	a0 f7       	brcc	.-24     	; 0xd88 <pow+0xa2>
     da0:	07 f8       	bld	r0, 7
     da2:	0f 92       	push	r0
     da4:	e8 94       	clt
     da6:	2b e3       	ldi	r18, 0x3B	; 59
     da8:	3a ea       	ldi	r19, 0xAA	; 170
     daa:	48 eb       	ldi	r20, 0xB8	; 184
     dac:	5f e7       	ldi	r21, 0x7F	; 127
     dae:	0e 94 1c 06 	call	0xc38	; 0xc38 <__mulsf3_pse>
     db2:	0f 92       	push	r0
     db4:	0f 92       	push	r0
     db6:	0f 92       	push	r0
     db8:	4d b7       	in	r20, 0x3d	; 61
     dba:	5e b7       	in	r21, 0x3e	; 62
     dbc:	0f 92       	push	r0
     dbe:	0e 94 b6 07 	call	0xf6c	; 0xf6c <modf>
     dc2:	e8 e7       	ldi	r30, 0x78	; 120
     dc4:	f0 e0       	ldi	r31, 0x00	; 0
     dc6:	0e 94 fd 06 	call	0xdfa	; 0xdfa <__fp_powser>
     dca:	4f 91       	pop	r20
     dcc:	5f 91       	pop	r21
     dce:	ef 91       	pop	r30
     dd0:	ff 91       	pop	r31
     dd2:	e5 95       	asr	r30
     dd4:	ee 1f       	adc	r30, r30
     dd6:	ff 1f       	adc	r31, r31
     dd8:	49 f0       	breq	.+18     	; 0xdec <exp+0x56>
     dda:	fe 57       	subi	r31, 0x7E	; 126
     ddc:	e0 68       	ori	r30, 0x80	; 128
     dde:	44 27       	eor	r20, r20
     de0:	ee 0f       	add	r30, r30
     de2:	44 1f       	adc	r20, r20
     de4:	fa 95       	dec	r31
     de6:	e1 f7       	brne	.-8      	; 0xde0 <exp+0x4a>
     de8:	41 95       	neg	r20
     dea:	55 0b       	sbc	r21, r21
     dec:	0e 94 30 07 	call	0xe60	; 0xe60 <ldexp>
     df0:	0f 90       	pop	r0
     df2:	07 fe       	sbrs	r0, 7
     df4:	0c 94 24 07 	jmp	0xe48	; 0xe48 <inverse>
     df8:	08 95       	ret

00000dfa <__fp_powser>:
     dfa:	df 93       	push	r29
     dfc:	cf 93       	push	r28
     dfe:	1f 93       	push	r17
     e00:	0f 93       	push	r16
     e02:	ff 92       	push	r15
     e04:	ef 92       	push	r14
     e06:	df 92       	push	r13
     e08:	7b 01       	movw	r14, r22
     e0a:	8c 01       	movw	r16, r24
     e0c:	68 94       	set
     e0e:	06 c0       	rjmp	.+12     	; 0xe1c <__fp_powser+0x22>
     e10:	da 2e       	mov	r13, r26
     e12:	ef 01       	movw	r28, r30
     e14:	0e 94 19 06 	call	0xc32	; 0xc32 <__mulsf3x>
     e18:	fe 01       	movw	r30, r28
     e1a:	e8 94       	clt
     e1c:	a5 91       	lpm	r26, Z+
     e1e:	25 91       	lpm	r18, Z+
     e20:	35 91       	lpm	r19, Z+
     e22:	45 91       	lpm	r20, Z+
     e24:	55 91       	lpm	r21, Z+
     e26:	a6 f3       	brts	.-24     	; 0xe10 <__fp_powser+0x16>
     e28:	ef 01       	movw	r28, r30
     e2a:	0e 94 59 04 	call	0x8b2	; 0x8b2 <__addsf3x>
     e2e:	fe 01       	movw	r30, r28
     e30:	97 01       	movw	r18, r14
     e32:	a8 01       	movw	r20, r16
     e34:	da 94       	dec	r13
     e36:	69 f7       	brne	.-38     	; 0xe12 <__fp_powser+0x18>
     e38:	df 90       	pop	r13
     e3a:	ef 90       	pop	r14
     e3c:	ff 90       	pop	r15
     e3e:	0f 91       	pop	r16
     e40:	1f 91       	pop	r17
     e42:	cf 91       	pop	r28
     e44:	df 91       	pop	r29
     e46:	08 95       	ret

00000e48 <inverse>:
     e48:	9b 01       	movw	r18, r22
     e4a:	ac 01       	movw	r20, r24
     e4c:	60 e0       	ldi	r22, 0x00	; 0
     e4e:	70 e0       	ldi	r23, 0x00	; 0
     e50:	80 e8       	ldi	r24, 0x80	; 128
     e52:	9f e3       	ldi	r25, 0x3F	; 63
     e54:	0c 94 b3 04 	jmp	0x966	; 0x966 <__divsf3>
     e58:	0c 94 b5 05 	jmp	0xb6a	; 0xb6a <__fp_inf>
     e5c:	0c 94 ea 07 	jmp	0xfd4	; 0xfd4 <__fp_mpack>

00000e60 <ldexp>:
     e60:	0e 94 e5 05 	call	0xbca	; 0xbca <__fp_splitA>
     e64:	d8 f3       	brcs	.-10     	; 0xe5c <inverse+0x14>
     e66:	99 23       	and	r25, r25
     e68:	c9 f3       	breq	.-14     	; 0xe5c <inverse+0x14>
     e6a:	94 0f       	add	r25, r20
     e6c:	51 1d       	adc	r21, r1
     e6e:	a3 f3       	brvs	.-24     	; 0xe58 <inverse+0x10>
     e70:	91 50       	subi	r25, 0x01	; 1
     e72:	50 40       	sbci	r21, 0x00	; 0
     e74:	94 f0       	brlt	.+36     	; 0xe9a <ldexp+0x3a>
     e76:	59 f0       	breq	.+22     	; 0xe8e <ldexp+0x2e>
     e78:	88 23       	and	r24, r24
     e7a:	32 f0       	brmi	.+12     	; 0xe88 <ldexp+0x28>
     e7c:	66 0f       	add	r22, r22
     e7e:	77 1f       	adc	r23, r23
     e80:	88 1f       	adc	r24, r24
     e82:	91 50       	subi	r25, 0x01	; 1
     e84:	50 40       	sbci	r21, 0x00	; 0
     e86:	c1 f7       	brne	.-16     	; 0xe78 <ldexp+0x18>
     e88:	9e 3f       	cpi	r25, 0xFE	; 254
     e8a:	51 05       	cpc	r21, r1
     e8c:	2c f7       	brge	.-54     	; 0xe58 <inverse+0x10>
     e8e:	88 0f       	add	r24, r24
     e90:	91 1d       	adc	r25, r1
     e92:	96 95       	lsr	r25
     e94:	87 95       	ror	r24
     e96:	97 f9       	bld	r25, 7
     e98:	08 95       	ret
     e9a:	5f 3f       	cpi	r21, 0xFF	; 255
     e9c:	ac f0       	brlt	.+42     	; 0xec8 <ldexp+0x68>
     e9e:	98 3e       	cpi	r25, 0xE8	; 232
     ea0:	9c f0       	brlt	.+38     	; 0xec8 <ldexp+0x68>
     ea2:	bb 27       	eor	r27, r27
     ea4:	86 95       	lsr	r24
     ea6:	77 95       	ror	r23
     ea8:	67 95       	ror	r22
     eaa:	b7 95       	ror	r27
     eac:	08 f4       	brcc	.+2      	; 0xeb0 <ldexp+0x50>
     eae:	b1 60       	ori	r27, 0x01	; 1
     eb0:	93 95       	inc	r25
     eb2:	c1 f7       	brne	.-16     	; 0xea4 <ldexp+0x44>
     eb4:	bb 0f       	add	r27, r27
     eb6:	58 f7       	brcc	.-42     	; 0xe8e <ldexp+0x2e>
     eb8:	11 f4       	brne	.+4      	; 0xebe <ldexp+0x5e>
     eba:	60 ff       	sbrs	r22, 0
     ebc:	e8 cf       	rjmp	.-48     	; 0xe8e <ldexp+0x2e>
     ebe:	6f 5f       	subi	r22, 0xFF	; 255
     ec0:	7f 4f       	sbci	r23, 0xFF	; 255
     ec2:	8f 4f       	sbci	r24, 0xFF	; 255
     ec4:	9f 4f       	sbci	r25, 0xFF	; 255
     ec6:	e3 cf       	rjmp	.-58     	; 0xe8e <ldexp+0x2e>
     ec8:	0c 94 00 06 	jmp	0xc00	; 0xc00 <__fp_szero>
     ecc:	16 f0       	brts	.+4      	; 0xed2 <ldexp+0x72>
     ece:	0c 94 ea 07 	jmp	0xfd4	; 0xfd4 <__fp_mpack>
     ed2:	0c 94 bb 05 	jmp	0xb76	; 0xb76 <__fp_nan>
     ed6:	68 94       	set
     ed8:	0c 94 b5 05 	jmp	0xb6a	; 0xb6a <__fp_inf>

00000edc <log>:
     edc:	0e 94 e5 05 	call	0xbca	; 0xbca <__fp_splitA>
     ee0:	a8 f3       	brcs	.-22     	; 0xecc <ldexp+0x6c>
     ee2:	99 23       	and	r25, r25
     ee4:	c1 f3       	breq	.-16     	; 0xed6 <ldexp+0x76>
     ee6:	ae f3       	brts	.-22     	; 0xed2 <ldexp+0x72>
     ee8:	df 93       	push	r29
     eea:	cf 93       	push	r28
     eec:	1f 93       	push	r17
     eee:	0f 93       	push	r16
     ef0:	ff 92       	push	r15
     ef2:	c9 2f       	mov	r28, r25
     ef4:	dd 27       	eor	r29, r29
     ef6:	88 23       	and	r24, r24
     ef8:	2a f0       	brmi	.+10     	; 0xf04 <log+0x28>
     efa:	21 97       	sbiw	r28, 0x01	; 1
     efc:	66 0f       	add	r22, r22
     efe:	77 1f       	adc	r23, r23
     f00:	88 1f       	adc	r24, r24
     f02:	da f7       	brpl	.-10     	; 0xefa <log+0x1e>
     f04:	20 e0       	ldi	r18, 0x00	; 0
     f06:	30 e0       	ldi	r19, 0x00	; 0
     f08:	40 e8       	ldi	r20, 0x80	; 128
     f0a:	5f eb       	ldi	r21, 0xBF	; 191
     f0c:	9f e3       	ldi	r25, 0x3F	; 63
     f0e:	88 39       	cpi	r24, 0x98	; 152
     f10:	20 f0       	brcs	.+8      	; 0xf1a <log+0x3e>
     f12:	80 3e       	cpi	r24, 0xE0	; 224
     f14:	38 f0       	brcs	.+14     	; 0xf24 <log+0x48>
     f16:	21 96       	adiw	r28, 0x01	; 1
     f18:	8f 77       	andi	r24, 0x7F	; 127
     f1a:	0e 94 42 04 	call	0x884	; 0x884 <__addsf3>
     f1e:	e0 ea       	ldi	r30, 0xA0	; 160
     f20:	f0 e0       	ldi	r31, 0x00	; 0
     f22:	04 c0       	rjmp	.+8      	; 0xf2c <log+0x50>
     f24:	0e 94 42 04 	call	0x884	; 0x884 <__addsf3>
     f28:	ed ec       	ldi	r30, 0xCD	; 205
     f2a:	f0 e0       	ldi	r31, 0x00	; 0
     f2c:	0e 94 fd 06 	call	0xdfa	; 0xdfa <__fp_powser>
     f30:	8b 01       	movw	r16, r22
     f32:	be 01       	movw	r22, r28
     f34:	ec 01       	movw	r28, r24
     f36:	fb 2e       	mov	r15, r27
     f38:	6f 57       	subi	r22, 0x7F	; 127
     f3a:	71 09       	sbc	r23, r1
     f3c:	75 95       	asr	r23
     f3e:	77 1f       	adc	r23, r23
     f40:	88 0b       	sbc	r24, r24
     f42:	99 0b       	sbc	r25, r25
     f44:	0e 94 56 05 	call	0xaac	; 0xaac <__floatsisf>
     f48:	28 e1       	ldi	r18, 0x18	; 24
     f4a:	32 e7       	ldi	r19, 0x72	; 114
     f4c:	41 e3       	ldi	r20, 0x31	; 49
     f4e:	5f e3       	ldi	r21, 0x3F	; 63
     f50:	0e 94 19 06 	call	0xc32	; 0xc32 <__mulsf3x>
     f54:	af 2d       	mov	r26, r15
     f56:	98 01       	movw	r18, r16
     f58:	ae 01       	movw	r20, r28
     f5a:	ff 90       	pop	r15
     f5c:	0f 91       	pop	r16
     f5e:	1f 91       	pop	r17
     f60:	cf 91       	pop	r28
     f62:	df 91       	pop	r29
     f64:	0e 94 59 04 	call	0x8b2	; 0x8b2 <__addsf3x>
     f68:	0c 94 cc 05 	jmp	0xb98	; 0xb98 <__fp_round>

00000f6c <modf>:
     f6c:	fa 01       	movw	r30, r20
     f6e:	dc 01       	movw	r26, r24
     f70:	aa 0f       	add	r26, r26
     f72:	bb 1f       	adc	r27, r27
     f74:	9b 01       	movw	r18, r22
     f76:	ac 01       	movw	r20, r24
     f78:	bf 57       	subi	r27, 0x7F	; 127
     f7a:	28 f4       	brcc	.+10     	; 0xf86 <modf+0x1a>
     f7c:	22 27       	eor	r18, r18
     f7e:	33 27       	eor	r19, r19
     f80:	44 27       	eor	r20, r20
     f82:	50 78       	andi	r21, 0x80	; 128
     f84:	20 c0       	rjmp	.+64     	; 0xfc6 <modf+0x5a>
     f86:	b7 51       	subi	r27, 0x17	; 23
     f88:	90 f4       	brcc	.+36     	; 0xfae <modf+0x42>
     f8a:	ab 2f       	mov	r26, r27
     f8c:	00 24       	eor	r0, r0
     f8e:	46 95       	lsr	r20
     f90:	37 95       	ror	r19
     f92:	27 95       	ror	r18
     f94:	01 1c       	adc	r0, r1
     f96:	a3 95       	inc	r26
     f98:	d2 f3       	brmi	.-12     	; 0xf8e <modf+0x22>
     f9a:	00 20       	and	r0, r0
     f9c:	71 f0       	breq	.+28     	; 0xfba <modf+0x4e>
     f9e:	22 0f       	add	r18, r18
     fa0:	33 1f       	adc	r19, r19
     fa2:	44 1f       	adc	r20, r20
     fa4:	b3 95       	inc	r27
     fa6:	da f3       	brmi	.-10     	; 0xf9e <modf+0x32>
     fa8:	0e d0       	rcall	.+28     	; 0xfc6 <modf+0x5a>
     faa:	0c 94 41 04 	jmp	0x882	; 0x882 <__subsf3>
     fae:	61 30       	cpi	r22, 0x01	; 1
     fb0:	71 05       	cpc	r23, r1
     fb2:	a0 e8       	ldi	r26, 0x80	; 128
     fb4:	8a 07       	cpc	r24, r26
     fb6:	b9 46       	sbci	r27, 0x69	; 105
     fb8:	30 f4       	brcc	.+12     	; 0xfc6 <modf+0x5a>
     fba:	9b 01       	movw	r18, r22
     fbc:	ac 01       	movw	r20, r24
     fbe:	66 27       	eor	r22, r22
     fc0:	77 27       	eor	r23, r23
     fc2:	88 27       	eor	r24, r24
     fc4:	90 78       	andi	r25, 0x80	; 128
     fc6:	30 96       	adiw	r30, 0x00	; 0
     fc8:	21 f0       	breq	.+8      	; 0xfd2 <modf+0x66>
     fca:	20 83       	st	Z, r18
     fcc:	31 83       	std	Z+1, r19	; 0x01
     fce:	42 83       	std	Z+2, r20	; 0x02
     fd0:	53 83       	std	Z+3, r21	; 0x03
     fd2:	08 95       	ret

00000fd4 <__fp_mpack>:
     fd4:	9f 3f       	cpi	r25, 0xFF	; 255
     fd6:	31 f0       	breq	.+12     	; 0xfe4 <__fp_mpack_finite+0xc>

00000fd8 <__fp_mpack_finite>:
     fd8:	91 50       	subi	r25, 0x01	; 1
     fda:	20 f4       	brcc	.+8      	; 0xfe4 <__fp_mpack_finite+0xc>
     fdc:	87 95       	ror	r24
     fde:	77 95       	ror	r23
     fe0:	67 95       	ror	r22
     fe2:	b7 95       	ror	r27
     fe4:	88 0f       	add	r24, r24
     fe6:	91 1d       	adc	r25, r1
     fe8:	96 95       	lsr	r25
     fea:	87 95       	ror	r24
     fec:	97 f9       	bld	r25, 7
     fee:	08 95       	ret

00000ff0 <__tablejump2__>:
     ff0:	ee 0f       	add	r30, r30
     ff2:	ff 1f       	adc	r31, r31
     ff4:	05 90       	lpm	r0, Z+
     ff6:	f4 91       	lpm	r31, Z
     ff8:	e0 2d       	mov	r30, r0
     ffa:	09 94       	ijmp

00000ffc <__adddi3_s8>:
     ffc:	00 24       	eor	r0, r0
     ffe:	a7 fd       	sbrc	r26, 7
    1000:	00 94       	com	r0
    1002:	2a 0f       	add	r18, r26
    1004:	30 1d       	adc	r19, r0
    1006:	40 1d       	adc	r20, r0
    1008:	50 1d       	adc	r21, r0
    100a:	60 1d       	adc	r22, r0
    100c:	70 1d       	adc	r23, r0
    100e:	80 1d       	adc	r24, r0
    1010:	90 1d       	adc	r25, r0
    1012:	08 95       	ret

00001014 <__cmpdi2_s8>:
    1014:	00 24       	eor	r0, r0
    1016:	a7 fd       	sbrc	r26, 7
    1018:	00 94       	com	r0
    101a:	2a 17       	cp	r18, r26
    101c:	30 05       	cpc	r19, r0
    101e:	40 05       	cpc	r20, r0
    1020:	50 05       	cpc	r21, r0
    1022:	60 05       	cpc	r22, r0
    1024:	70 05       	cpc	r23, r0
    1026:	80 05       	cpc	r24, r0
    1028:	90 05       	cpc	r25, r0
    102a:	08 95       	ret

0000102c <_exit>:
    102c:	f8 94       	cli

0000102e <__stop_program>:
    102e:	ff cf       	rjmp	.-2      	; 0x102e <__stop_program>
