
ElecHeatsoftware.elf:     file format elf32-avr

Sections:
Idx Name          Size      VMA       LMA       File off  Algn
  0 .text         0000105c  00000000  00000000  00000074  2**1
                  CONTENTS, ALLOC, LOAD, READONLY, CODE
  1 .data         00000000  00800060  00800060  000010d0  2**0
                  CONTENTS, ALLOC, LOAD, DATA
  2 .bss          0000001b  00800060  00800060  000010d0  2**0
                  ALLOC
  3 .comment      00000030  00000000  00000000  000010d0  2**0
                  CONTENTS, READONLY
  4 .note.gnu.avr.deviceinfo 0000003c  00000000  00000000  00001100  2**2
                  CONTENTS, READONLY
  5 .debug_aranges 00000110  00000000  00000000  0000113c  2**0
                  CONTENTS, READONLY, DEBUGGING
  6 .debug_info   00000f58  00000000  00000000  0000124c  2**0
                  CONTENTS, READONLY, DEBUGGING
  7 .debug_abbrev 0000087b  00000000  00000000  000021a4  2**0
                  CONTENTS, READONLY, DEBUGGING
  8 .debug_line   00000a71  00000000  00000000  00002a1f  2**0
                  CONTENTS, READONLY, DEBUGGING
  9 .debug_frame  00000260  00000000  00000000  00003490  2**2
                  CONTENTS, READONLY, DEBUGGING
 10 .debug_str    00000670  00000000  00000000  000036f0  2**0
                  CONTENTS, READONLY, DEBUGGING
 11 .debug_loc    000004ec  00000000  00000000  00003d60  2**0
                  CONTENTS, READONLY, DEBUGGING
 12 .debug_ranges 000000f0  00000000  00000000  0000424c  2**0
                  CONTENTS, READONLY, DEBUGGING

Disassembly of section .text:

00000000 <__vectors>:
       0:	0c 94 7d 00 	jmp	0xfa	; 0xfa <__ctors_end>
       4:	0c 94 8f 00 	jmp	0x11e	; 0x11e <__bad_interrupt>
       8:	0c 94 8f 00 	jmp	0x11e	; 0x11e <__bad_interrupt>
       c:	0c 94 8f 00 	jmp	0x11e	; 0x11e <__bad_interrupt>
      10:	0c 94 8f 00 	jmp	0x11e	; 0x11e <__bad_interrupt>
      14:	0c 94 8f 00 	jmp	0x11e	; 0x11e <__bad_interrupt>
      18:	0c 94 8f 00 	jmp	0x11e	; 0x11e <__bad_interrupt>
      1c:	0c 94 8f 00 	jmp	0x11e	; 0x11e <__bad_interrupt>
      20:	0c 94 06 04 	jmp	0x80c	; 0x80c <__vector_8>
      24:	0c 94 8f 00 	jmp	0x11e	; 0x11e <__bad_interrupt>
      28:	0c 94 8f 00 	jmp	0x11e	; 0x11e <__bad_interrupt>
      2c:	0c 94 8f 00 	jmp	0x11e	; 0x11e <__bad_interrupt>
      30:	0c 94 8f 00 	jmp	0x11e	; 0x11e <__bad_interrupt>
      34:	0c 94 8f 00 	jmp	0x11e	; 0x11e <__bad_interrupt>
      38:	0c 94 8f 00 	jmp	0x11e	; 0x11e <__bad_interrupt>
      3c:	0c 94 8f 00 	jmp	0x11e	; 0x11e <__bad_interrupt>
      40:	0c 94 8f 00 	jmp	0x11e	; 0x11e <__bad_interrupt>
      44:	0c 94 8f 00 	jmp	0x11e	; 0x11e <__bad_interrupt>
      48:	0c 94 8f 00 	jmp	0x11e	; 0x11e <__bad_interrupt>
      4c:	0c 94 8f 00 	jmp	0x11e	; 0x11e <__bad_interrupt>
      50:	0c 94 8f 00 	jmp	0x11e	; 0x11e <__bad_interrupt>
      54:	2b 02       	muls	r18, r27
      56:	24 02       	muls	r18, r20
      58:	16 02       	muls	r17, r22
      5a:	08 02       	muls	r16, r24
      5c:	fa 01       	movw	r30, r20
      5e:	1d 02       	muls	r17, r29
      60:	f3 01       	movw	r30, r6
      62:	01 02       	muls	r16, r17
      64:	0f 02       	muls	r16, r31
      66:	6b 03       	fmul	r22, r19
      68:	68 03       	fmul	r22, r16
      6a:	62 03       	mulsu	r22, r18
      6c:	5c 03       	fmul	r21, r20
      6e:	56 03       	mulsu	r21, r22
      70:	65 03       	mulsu	r22, r21
      72:	53 03       	mulsu	r21, r19
      74:	59 03       	fmul	r21, r17
      76:	5f 03       	fmul	r21, r23
      78:	07 63       	ori	r16, 0x37	; 55
      7a:	42 36       	cpi	r20, 0x62	; 98
      7c:	b7 9b       	sbis	0x16, 7	; 22
      7e:	d8 a7       	std	Y+40, r29	; 0x28
      80:	1a 39       	cpi	r17, 0x9A	; 154
      82:	68 56       	subi	r22, 0x68	; 104
      84:	18 ae       	std	Y+56, r1	; 0x38
      86:	ba ab       	std	Y+50, r27	; 0x32
      88:	55 8c       	ldd	r5, Z+29	; 0x1d
      8a:	1d 3c       	cpi	r17, 0xCD	; 205
      8c:	b7 cc       	rjmp	.-1682   	; 0xfffff9fc <__eeprom_end+0xff7ef9fc>
      8e:	57 63       	ori	r21, 0x37	; 55
      90:	bd 6d       	ori	r27, 0xDD	; 221
      92:	ed fd       	.word	0xfded	; ????
      94:	75 3e       	cpi	r23, 0xE5	; 229
      96:	f6 17       	cp	r31, r22
      98:	72 31       	cpi	r23, 0x12	; 18
      9a:	bf 00       	.word	0x00bf	; ????
      9c:	00 00       	nop
      9e:	80 3f       	cpi	r24, 0xF0	; 240
      a0:	08 00       	.word	0x0008	; ????
      a2:	00 00       	nop
      a4:	be 92       	st	-X, r11
      a6:	24 49       	sbci	r18, 0x94	; 148
      a8:	12 3e       	cpi	r17, 0xE2	; 226
      aa:	ab aa       	std	Y+51, r10	; 0x33
      ac:	aa 2a       	or	r10, r26
      ae:	be cd       	rjmp	.-1156   	; 0xfffffc2c <__eeprom_end+0xff7efc2c>
      b0:	cc cc       	rjmp	.-1640   	; 0xfffffa4a <__eeprom_end+0xff7efa4a>
      b2:	4c 3e       	cpi	r20, 0xEC	; 236
      b4:	00 00       	nop
      b6:	00 80       	ld	r0, Z
      b8:	be ab       	std	Y+54, r27	; 0x36
      ba:	aa aa       	std	Y+50, r10	; 0x32
      bc:	aa 3e       	cpi	r26, 0xEA	; 234
      be:	00 00       	nop
      c0:	00 00       	nop
      c2:	bf 00       	.word	0x00bf	; ????
      c4:	00 00       	nop
      c6:	80 3f       	cpi	r24, 0xF0	; 240
      c8:	00 00       	nop
      ca:	00 00       	nop
      cc:	00 08       	sbc	r0, r0
      ce:	41 78       	andi	r20, 0x81	; 129
      d0:	d3 bb       	out	0x13, r29	; 19
      d2:	43 87       	std	Z+11, r20	; 0x0b
      d4:	d1 13       	cpse	r29, r17
      d6:	3d 19       	sub	r19, r13
      d8:	0e 3c       	cpi	r16, 0xCE	; 206
      da:	c3 bd       	out	0x23, r28	; 35
      dc:	42 82       	std	Z+2, r4	; 0x02
      de:	ad 2b       	or	r26, r29
      e0:	3e 68       	ori	r19, 0x8E	; 142
      e2:	ec 82       	std	Y+4, r14	; 0x04
      e4:	76 be       	out	0x36, r7	; 54
      e6:	d9 8f       	std	Y+25, r29	; 0x19
      e8:	e1 a9       	ldd	r30, Z+49	; 0x31
      ea:	3e 4c       	sbci	r19, 0xCE	; 206
      ec:	80 ef       	ldi	r24, 0xF0	; 240
      ee:	ff be       	out	0x3f, r15	; 63
      f0:	01 c4       	rjmp	.+2050   	; 0x8f4 <__addsf3x+0x16>
      f2:	ff 7f       	andi	r31, 0xFF	; 255
      f4:	3f 00       	.word	0x003f	; ????
      f6:	00 00       	nop
	...

000000fa <__ctors_end>:
      fa:	11 24       	eor	r1, r1
      fc:	1f be       	out	0x3f, r1	; 63
      fe:	cf e5       	ldi	r28, 0x5F	; 95
     100:	d4 e0       	ldi	r29, 0x04	; 4
     102:	de bf       	out	0x3e, r29	; 62
     104:	cd bf       	out	0x3d, r28	; 61

00000106 <__do_clear_bss>:
     106:	20 e0       	ldi	r18, 0x00	; 0
     108:	a0 e6       	ldi	r26, 0x60	; 96
     10a:	b0 e0       	ldi	r27, 0x00	; 0
     10c:	01 c0       	rjmp	.+2      	; 0x110 <.do_clear_bss_start>

0000010e <.do_clear_bss_loop>:
     10e:	1d 92       	st	X+, r1

00000110 <.do_clear_bss_start>:
     110:	ab 37       	cpi	r26, 0x7B	; 123
     112:	b2 07       	cpc	r27, r18
     114:	e1 f7       	brne	.-8      	; 0x10e <.do_clear_bss_loop>
     116:	0e 94 39 04 	call	0x872	; 0x872 <main>
     11a:	0c 94 2c 08 	jmp	0x1058	; 0x1058 <_exit>

0000011e <__bad_interrupt>:
     11e:	0c 94 00 00 	jmp	0	; 0x0 <__vectors>

00000122 <ADC_init>:
	/* ADMUX Register Bits Description:
	 * REFS1:0 = 00 to choose to connect external reference voltage by input this voltage through AREF pin
	 * ADLAR   = 0 right adjusted
	 * MUX4:0  = 00000 to choose channel 0 as initialization
	 */
	ADMUX = 0x00;
     122:	17 b8       	out	0x07, r1	; 7
	/* ADCSRA Register Bits Description:
	 * ADEN    = 1 Enable ADC
	 * ADIE    = 0 Disable ADC Interrupt
	 * ADPS2:0 = 011 to choose ADC_Clock=F_CPU/8=1Mhz/8=125Khz --> ADC must operate in range 50-200Khz
	 */
	ADCSRA = (1<<7) | (1<<1) | (1<<0);
     124:	83 e8       	ldi	r24, 0x83	; 131
     126:	86 b9       	out	0x06, r24	; 6
     128:	08 95       	ret

0000012a <ADC_readChannel>:
}

unsigned short ADC_readChannel(unsigned char channel_num)
{
	//channel_num &= 0x07; /* channel number must be from 0 --> 7 */
	ADMUX &= 0xE0; /* clear first 5 bits in the ADMUX (channel number MUX4:0 bits) before set the required channel */
     12a:	97 b1       	in	r25, 0x07	; 7
     12c:	90 7e       	andi	r25, 0xE0	; 224
     12e:	97 b9       	out	0x07, r25	; 7
	ADMUX = ADMUX | channel_num; /* choose the correct channel by setting the channel number in MUX4:0 bits */
     130:	97 b1       	in	r25, 0x07	; 7
     132:	89 2b       	or	r24, r25
     134:	87 b9       	out	0x07, r24	; 7
	SET_BIT(ADCSRA,6); /* start conversion write '1' to ADSC */
     136:	86 b1       	in	r24, 0x06	; 6
     138:	80 64       	ori	r24, 0x40	; 64
     13a:	86 b9       	out	0x06, r24	; 6
	//ADCSRA |= (1<<ADSC);
	while(BIT_IS_CLEAR(ADCSRA,4)); /* wait for conversion to complete ADIF becomes '1' */
     13c:	34 9b       	sbis	0x06, 4	; 6
     13e:	fe cf       	rjmp	.-4      	; 0x13c <ADC_readChannel+0x12>
		SET_BIT(ADCSRA,4); /* clear ADIF by write '1' to it :) */
     140:	86 b1       	in	r24, 0x06	; 6
     142:	80 61       	ori	r24, 0x10	; 16
     144:	86 b9       	out	0x06, r24	; 6
	return ADC; /* return the data register */
     146:	84 b1       	in	r24, 0x04	; 4
     148:	95 b1       	in	r25, 0x05	; 5
	

}
     14a:	08 95       	ret

0000014c <DATA_DIRECTION_REGISTER>:
u8 Bcd_to_decimal (u8 value)
{
	value=TWDR;
	//return the BCD_TO_DECIMAL process
	return( ((value>>4)*10)+(value &0xF));
}
     14c:	8f 34       	cpi	r24, 0x4F	; 79
     14e:	41 f5       	brne	.+80     	; 0x1a0 <DATA_DIRECTION_REGISTER+0x54>
     150:	81 b3       	in	r24, 0x11	; 17
     152:	81 60       	ori	r24, 0x01	; 1
     154:	81 bb       	out	0x11, r24	; 17
     156:	81 b3       	in	r24, 0x11	; 17
     158:	82 60       	ori	r24, 0x02	; 2
     15a:	81 bb       	out	0x11, r24	; 17
     15c:	81 b3       	in	r24, 0x11	; 17
     15e:	84 60       	ori	r24, 0x04	; 4
     160:	81 bb       	out	0x11, r24	; 17
     162:	81 b3       	in	r24, 0x11	; 17
     164:	88 60       	ori	r24, 0x08	; 8
     166:	81 bb       	out	0x11, r24	; 17
     168:	81 b3       	in	r24, 0x11	; 17
     16a:	80 61       	ori	r24, 0x10	; 16
     16c:	81 bb       	out	0x11, r24	; 17
     16e:	81 b3       	in	r24, 0x11	; 17
     170:	80 62       	ori	r24, 0x20	; 32
     172:	81 bb       	out	0x11, r24	; 17
     174:	81 b3       	in	r24, 0x11	; 17
     176:	80 64       	ori	r24, 0x40	; 64
     178:	81 bb       	out	0x11, r24	; 17
     17a:	81 b3       	in	r24, 0x11	; 17
     17c:	80 68       	ori	r24, 0x80	; 128
     17e:	81 bb       	out	0x11, r24	; 17
     180:	87 b3       	in	r24, 0x17	; 23
     182:	81 60       	ori	r24, 0x01	; 1
     184:	87 bb       	out	0x17, r24	; 23
     186:	87 b3       	in	r24, 0x17	; 23
     188:	80 68       	ori	r24, 0x80	; 128
     18a:	87 bb       	out	0x17, r24	; 23
     18c:	87 b3       	in	r24, 0x17	; 23
     18e:	80 62       	ori	r24, 0x20	; 32
     190:	87 bb       	out	0x17, r24	; 23
     192:	87 b3       	in	r24, 0x17	; 23
     194:	80 64       	ori	r24, 0x40	; 64
     196:	87 bb       	out	0x17, r24	; 23
     198:	87 b3       	in	r24, 0x17	; 23
     19a:	80 61       	ori	r24, 0x10	; 16
     19c:	87 bb       	out	0x17, r24	; 23
     19e:	08 95       	ret
     1a0:	69 34       	cpi	r22, 0x49	; 73
     1a2:	49 f4       	brne	.+18     	; 0x1b6 <DATA_DIRECTION_REGISTER+0x6a>
     1a4:	87 b3       	in	r24, 0x17	; 23
     1a6:	87 7f       	andi	r24, 0xF7	; 247
     1a8:	87 bb       	out	0x17, r24	; 23
     1aa:	87 b3       	in	r24, 0x17	; 23
     1ac:	8b 7f       	andi	r24, 0xFB	; 251
     1ae:	87 bb       	out	0x17, r24	; 23
     1b0:	87 b3       	in	r24, 0x17	; 23
     1b2:	8d 7f       	andi	r24, 0xFD	; 253
     1b4:	87 bb       	out	0x17, r24	; 23
     1b6:	08 95       	ret

000001b8 <Init_VARIABLES>:
     1b8:	ef 92       	push	r14
     1ba:	0f 93       	push	r16
     1bc:	83 35       	cpi	r24, 0x53	; 83
     1be:	19 f4       	brne	.+6      	; 0x1c6 <Init_VARIABLES+0xe>
     1c0:	98 b3       	in	r25, 0x18	; 24
     1c2:	91 60       	ori	r25, 0x01	; 1
     1c4:	98 bb       	out	0x18, r25	; 24
     1c6:	63 35       	cpi	r22, 0x53	; 83
     1c8:	21 f4       	brne	.+8      	; 0x1d2 <Init_VARIABLES+0x1a>
     1ca:	88 b3       	in	r24, 0x18	; 24
     1cc:	80 68       	ori	r24, 0x80	; 128
     1ce:	88 bb       	out	0x18, r24	; 24
     1d0:	31 c0       	rjmp	.+98     	; 0x234 <__EEPROM_REGION_LENGTH__+0x34>
     1d2:	49 34       	cpi	r20, 0x49	; 73
     1d4:	e9 f4       	brne	.+58     	; 0x210 <__EEPROM_REGION_LENGTH__+0x10>
     1d6:	83 35       	cpi	r24, 0x53	; 83
     1d8:	d9 f4       	brne	.+54     	; 0x210 <__EEPROM_REGION_LENGTH__+0x10>
     1da:	63 35       	cpi	r22, 0x53	; 83
     1dc:	c9 f4       	brne	.+50     	; 0x210 <__EEPROM_REGION_LENGTH__+0x10>
     1de:	82 b3       	in	r24, 0x12	; 18
     1e0:	8f 77       	andi	r24, 0x7F	; 127
     1e2:	82 bb       	out	0x12, r24	; 18
     1e4:	82 b3       	in	r24, 0x12	; 18
     1e6:	80 64       	ori	r24, 0x40	; 64
     1e8:	82 bb       	out	0x12, r24	; 18
     1ea:	82 b3       	in	r24, 0x12	; 18
     1ec:	80 62       	ori	r24, 0x20	; 32
     1ee:	82 bb       	out	0x12, r24	; 18
     1f0:	82 b3       	in	r24, 0x12	; 18
     1f2:	8f 7e       	andi	r24, 0xEF	; 239
     1f4:	82 bb       	out	0x12, r24	; 18
     1f6:	82 b3       	in	r24, 0x12	; 18
     1f8:	87 7f       	andi	r24, 0xF7	; 247
     1fa:	82 bb       	out	0x12, r24	; 18
     1fc:	82 b3       	in	r24, 0x12	; 18
     1fe:	8b 7f       	andi	r24, 0xFB	; 251
     200:	82 bb       	out	0x12, r24	; 18
     202:	82 b3       	in	r24, 0x12	; 18
     204:	8d 7f       	andi	r24, 0xFD	; 253
     206:	82 bb       	out	0x12, r24	; 18
     208:	82 b3       	in	r24, 0x12	; 18
     20a:	8e 7f       	andi	r24, 0xFE	; 254
     20c:	82 bb       	out	0x12, r24	; 18
     20e:	12 c0       	rjmp	.+36     	; 0x234 <__EEPROM_REGION_LENGTH__+0x34>
     210:	22 35       	cpi	r18, 0x52	; 82
     212:	21 f4       	brne	.+8      	; 0x21c <__EEPROM_REGION_LENGTH__+0x1c>
     214:	88 b3       	in	r24, 0x18	; 24
     216:	8f 7e       	andi	r24, 0xEF	; 239
     218:	88 bb       	out	0x18, r24	; 24
     21a:	0c c0       	rjmp	.+24     	; 0x234 <__EEPROM_REGION_LENGTH__+0x34>
     21c:	02 35       	cpi	r16, 0x52	; 82
     21e:	21 f4       	brne	.+8      	; 0x228 <__EEPROM_REGION_LENGTH__+0x28>
     220:	88 b3       	in	r24, 0x18	; 24
     222:	8f 7d       	andi	r24, 0xDF	; 223
     224:	88 bb       	out	0x18, r24	; 24
     226:	06 c0       	rjmp	.+12     	; 0x234 <__EEPROM_REGION_LENGTH__+0x34>
     228:	82 e5       	ldi	r24, 0x52	; 82
     22a:	e8 12       	cpse	r14, r24
     22c:	03 c0       	rjmp	.+6      	; 0x234 <__EEPROM_REGION_LENGTH__+0x34>
     22e:	88 b3       	in	r24, 0x18	; 24
     230:	8f 7b       	andi	r24, 0xBF	; 191
     232:	88 bb       	out	0x18, r24	; 24
     234:	0f 91       	pop	r16
     236:	ef 90       	pop	r14
     238:	08 95       	ret

0000023a <Avg_reading>:
     23a:	60 91 75 00 	lds	r22, 0x0075	; 0x800075 <x>
     23e:	70 91 76 00 	lds	r23, 0x0076	; 0x800076 <x+0x1>
     242:	80 91 77 00 	lds	r24, 0x0077	; 0x800077 <x+0x2>
     246:	90 91 78 00 	lds	r25, 0x0078	; 0x800078 <x+0x3>
     24a:	20 91 6d 00 	lds	r18, 0x006D	; 0x80006d <sum>
     24e:	30 91 6e 00 	lds	r19, 0x006E	; 0x80006e <sum+0x1>
     252:	40 91 6f 00 	lds	r20, 0x006F	; 0x80006f <sum+0x2>
     256:	50 91 70 00 	lds	r21, 0x0070	; 0x800070 <sum+0x3>
     25a:	0e 94 58 04 	call	0x8b0	; 0x8b0 <__addsf3>
     25e:	60 93 6d 00 	sts	0x006D, r22	; 0x80006d <sum>
     262:	70 93 6e 00 	sts	0x006E, r23	; 0x80006e <sum+0x1>
     266:	80 93 6f 00 	sts	0x006F, r24	; 0x80006f <sum+0x2>
     26a:	90 93 70 00 	sts	0x0070, r25	; 0x800070 <sum+0x3>
     26e:	20 91 6a 00 	lds	r18, 0x006A	; 0x80006a <i>
     272:	2f 5f       	subi	r18, 0xFF	; 255
     274:	20 93 6a 00 	sts	0x006A, r18	; 0x80006a <i>
     278:	29 30       	cpi	r18, 0x09	; 9
     27a:	c1 f4       	brne	.+48     	; 0x2ac <Avg_reading+0x72>
     27c:	24 e1       	ldi	r18, 0x14	; 20
     27e:	3e ea       	ldi	r19, 0xAE	; 174
     280:	41 e1       	ldi	r20, 0x11	; 17
     282:	51 e4       	ldi	r21, 0x41	; 65
     284:	0e 94 c9 04 	call	0x992	; 0x992 <__divsf3>
     288:	60 93 71 00 	sts	0x0071, r22	; 0x800071 <average>
     28c:	70 93 72 00 	sts	0x0072, r23	; 0x800072 <average+0x1>
     290:	80 93 73 00 	sts	0x0073, r24	; 0x800073 <average+0x2>
     294:	90 93 74 00 	sts	0x0074, r25	; 0x800074 <average+0x3>
     298:	10 92 6a 00 	sts	0x006A, r1	; 0x80006a <i>
     29c:	10 92 6d 00 	sts	0x006D, r1	; 0x80006d <sum>
     2a0:	10 92 6e 00 	sts	0x006E, r1	; 0x80006e <sum+0x1>
     2a4:	10 92 6f 00 	sts	0x006F, r1	; 0x80006f <sum+0x2>
     2a8:	10 92 70 00 	sts	0x0070, r1	; 0x800070 <sum+0x3>
     2ac:	08 95       	ret

000002ae <Temperature_reading>:
     2ae:	80 e0       	ldi	r24, 0x00	; 0
     2b0:	0e 94 95 00 	call	0x12a	; 0x12a <ADC_readChannel>
     2b4:	90 93 7a 00 	sts	0x007A, r25	; 0x80007a <volt+0x1>
     2b8:	80 93 79 00 	sts	0x0079, r24	; 0x800079 <volt>
     2bc:	60 91 79 00 	lds	r22, 0x0079	; 0x800079 <volt>
     2c0:	70 91 7a 00 	lds	r23, 0x007A	; 0x80007a <volt+0x1>
     2c4:	cb 01       	movw	r24, r22
     2c6:	88 0f       	add	r24, r24
     2c8:	99 1f       	adc	r25, r25
     2ca:	88 0f       	add	r24, r24
     2cc:	99 1f       	adc	r25, r25
     2ce:	68 0f       	add	r22, r24
     2d0:	79 1f       	adc	r23, r25
     2d2:	80 e0       	ldi	r24, 0x00	; 0
     2d4:	90 e0       	ldi	r25, 0x00	; 0
     2d6:	0e 94 6a 05 	call	0xad4	; 0xad4 <__floatunsisf>
     2da:	20 e0       	ldi	r18, 0x00	; 0
     2dc:	30 ec       	ldi	r19, 0xC0	; 192
     2de:	4f e7       	ldi	r20, 0x7F	; 127
     2e0:	54 e4       	ldi	r21, 0x44	; 68
     2e2:	0e 94 c9 04 	call	0x992	; 0x992 <__divsf3>
     2e6:	60 93 75 00 	sts	0x0075, r22	; 0x800075 <x>
     2ea:	70 93 76 00 	sts	0x0076, r23	; 0x800076 <x+0x1>
     2ee:	80 93 77 00 	sts	0x0077, r24	; 0x800077 <x+0x2>
     2f2:	90 93 78 00 	sts	0x0078, r25	; 0x800078 <x+0x3>
     2f6:	60 91 75 00 	lds	r22, 0x0075	; 0x800075 <x>
     2fa:	70 91 76 00 	lds	r23, 0x0076	; 0x800076 <x+0x1>
     2fe:	80 91 77 00 	lds	r24, 0x0077	; 0x800077 <x+0x2>
     302:	90 91 78 00 	lds	r25, 0x0078	; 0x800078 <x+0x3>
     306:	20 e0       	ldi	r18, 0x00	; 0
     308:	30 e0       	ldi	r19, 0x00	; 0
     30a:	48 ec       	ldi	r20, 0xC8	; 200
     30c:	52 e4       	ldi	r21, 0x42	; 66
     30e:	0e 94 1c 06 	call	0xc38	; 0xc38 <__mulsf3>
     312:	60 93 75 00 	sts	0x0075, r22	; 0x800075 <x>
     316:	70 93 76 00 	sts	0x0076, r23	; 0x800076 <x+0x1>
     31a:	80 93 77 00 	sts	0x0077, r24	; 0x800077 <x+0x2>
     31e:	90 93 78 00 	sts	0x0078, r25	; 0x800078 <x+0x3>
     322:	0e 94 1d 01 	call	0x23a	; 0x23a <Avg_reading>
     326:	08 95       	ret

00000328 <ACTIVATION>:
     328:	cf 92       	push	r12
     32a:	df 92       	push	r13
     32c:	ef 92       	push	r14
     32e:	ff 92       	push	r15
     330:	cf 93       	push	r28
     332:	20 91 6b 00 	lds	r18, 0x006B	; 0x80006b <counter>
     336:	30 91 6c 00 	lds	r19, 0x006C	; 0x80006c <counter+0x1>
     33a:	28 17       	cp	r18, r24
     33c:	39 07       	cpc	r19, r25
     33e:	09 f0       	breq	.+2      	; 0x342 <ACTIVATION+0x1a>
     340:	3f c0       	rjmp	.+126    	; 0x3c0 <ACTIVATION+0x98>
     342:	c4 2f       	mov	r28, r20
     344:	70 e0       	ldi	r23, 0x00	; 0
     346:	80 e0       	ldi	r24, 0x00	; 0
     348:	90 e0       	ldi	r25, 0x00	; 0
     34a:	0e 94 6c 05 	call	0xad8	; 0xad8 <__floatsisf>
     34e:	c0 90 71 00 	lds	r12, 0x0071	; 0x800071 <average>
     352:	d0 90 72 00 	lds	r13, 0x0072	; 0x800072 <average+0x1>
     356:	e0 90 73 00 	lds	r14, 0x0073	; 0x800073 <average+0x2>
     35a:	f0 90 74 00 	lds	r15, 0x0074	; 0x800074 <average+0x3>
     35e:	a7 01       	movw	r20, r14
     360:	96 01       	movw	r18, r12
     362:	0e 94 c4 04 	call	0x988	; 0x988 <__cmpsf2>
     366:	18 16       	cp	r1, r24
     368:	54 f0       	brlt	.+20     	; 0x37e <ACTIVATION+0x56>
     36a:	88 b3       	in	r24, 0x18	; 24
     36c:	80 62       	ori	r24, 0x20	; 32
     36e:	88 bb       	out	0x18, r24	; 24
     370:	88 b3       	in	r24, 0x18	; 24
     372:	8f 7b       	andi	r24, 0xBF	; 191
     374:	88 bb       	out	0x18, r24	; 24
     376:	88 b3       	in	r24, 0x18	; 24
     378:	80 61       	ori	r24, 0x10	; 16
     37a:	88 bb       	out	0x18, r24	; 24
     37c:	21 c0       	rjmp	.+66     	; 0x3c0 <ACTIVATION+0x98>
     37e:	6c 2f       	mov	r22, r28
     380:	70 e0       	ldi	r23, 0x00	; 0
     382:	80 e0       	ldi	r24, 0x00	; 0
     384:	90 e0       	ldi	r25, 0x00	; 0
     386:	0e 94 6c 05 	call	0xad8	; 0xad8 <__floatsisf>
     38a:	9b 01       	movw	r18, r22
     38c:	ac 01       	movw	r20, r24
     38e:	c7 01       	movw	r24, r14
     390:	b6 01       	movw	r22, r12
     392:	0e 94 c4 04 	call	0x988	; 0x988 <__cmpsf2>
     396:	18 16       	cp	r1, r24
     398:	9c f0       	brlt	.+38     	; 0x3c0 <ACTIVATION+0x98>
     39a:	88 b3       	in	r24, 0x18	; 24
     39c:	8f 7d       	andi	r24, 0xDF	; 223
     39e:	88 bb       	out	0x18, r24	; 24
     3a0:	88 b3       	in	r24, 0x18	; 24
     3a2:	80 64       	ori	r24, 0x40	; 64
     3a4:	88 bb       	out	0x18, r24	; 24
     3a6:	98 b3       	in	r25, 0x18	; 24
     3a8:	80 e1       	ldi	r24, 0x10	; 16
     3aa:	89 27       	eor	r24, r25
     3ac:	88 bb       	out	0x18, r24	; 24
     3ae:	2f ed       	ldi	r18, 0xDF	; 223
     3b0:	82 e2       	ldi	r24, 0x22	; 34
     3b2:	92 e0       	ldi	r25, 0x02	; 2
     3b4:	21 50       	subi	r18, 0x01	; 1
     3b6:	80 40       	sbci	r24, 0x00	; 0
     3b8:	90 40       	sbci	r25, 0x00	; 0
     3ba:	e1 f7       	brne	.-8      	; 0x3b4 <ACTIVATION+0x8c>
     3bc:	00 c0       	rjmp	.+0      	; 0x3be <ACTIVATION+0x96>
     3be:	00 00       	nop
     3c0:	cf 91       	pop	r28
     3c2:	ff 90       	pop	r15
     3c4:	ef 90       	pop	r14
     3c6:	df 90       	pop	r13
     3c8:	cf 90       	pop	r12
     3ca:	08 95       	ret

000003cc <ELEMENTS>:
     3cc:	e0 91 6b 00 	lds	r30, 0x006B	; 0x80006b <counter>
     3d0:	f0 91 6c 00 	lds	r31, 0x006C	; 0x80006c <counter+0x1>
     3d4:	35 96       	adiw	r30, 0x05	; 5
     3d6:	e9 30       	cpi	r30, 0x09	; 9
     3d8:	f1 05       	cpc	r31, r1
     3da:	08 f0       	brcs	.+2      	; 0x3de <ELEMENTS+0x12>
     3dc:	42 c0       	rjmp	.+132    	; 0x462 <__stack+0x3>
     3de:	e6 5d       	subi	r30, 0xD6	; 214
     3e0:	ff 4f       	sbci	r31, 0xFF	; 255
     3e2:	0c 94 0e 08 	jmp	0x101c	; 0x101c <__tablejump2__>
     3e6:	4c e3       	ldi	r20, 0x3C	; 60
     3e8:	66 e4       	ldi	r22, 0x46	; 70
     3ea:	81 e0       	ldi	r24, 0x01	; 1
     3ec:	90 e0       	ldi	r25, 0x00	; 0
     3ee:	0e 94 94 01 	call	0x328	; 0x328 <ACTIVATION>
     3f2:	08 95       	ret
     3f4:	42 e3       	ldi	r20, 0x32	; 50
     3f6:	6c e3       	ldi	r22, 0x3C	; 60
     3f8:	8f ef       	ldi	r24, 0xFF	; 255
     3fa:	9f ef       	ldi	r25, 0xFF	; 255
     3fc:	0e 94 94 01 	call	0x328	; 0x328 <ACTIVATION>
     400:	08 95       	ret
     402:	41 e4       	ldi	r20, 0x41	; 65
     404:	6b e4       	ldi	r22, 0x4B	; 75
     406:	82 e0       	ldi	r24, 0x02	; 2
     408:	90 e0       	ldi	r25, 0x00	; 0
     40a:	0e 94 94 01 	call	0x328	; 0x328 <ACTIVATION>
     40e:	08 95       	ret
     410:	4d e2       	ldi	r20, 0x2D	; 45
     412:	67 e3       	ldi	r22, 0x37	; 55
     414:	8e ef       	ldi	r24, 0xFE	; 254
     416:	9f ef       	ldi	r25, 0xFF	; 255
     418:	0e 94 94 01 	call	0x328	; 0x328 <ACTIVATION>
     41c:	08 95       	ret
     41e:	46 e4       	ldi	r20, 0x46	; 70
     420:	60 e5       	ldi	r22, 0x50	; 80
     422:	83 e0       	ldi	r24, 0x03	; 3
     424:	90 e0       	ldi	r25, 0x00	; 0
     426:	0e 94 94 01 	call	0x328	; 0x328 <ACTIVATION>
     42a:	08 95       	ret
     42c:	48 e2       	ldi	r20, 0x28	; 40
     42e:	62 e3       	ldi	r22, 0x32	; 50
     430:	8d ef       	ldi	r24, 0xFD	; 253
     432:	9f ef       	ldi	r25, 0xFF	; 255
     434:	0e 94 94 01 	call	0x328	; 0x328 <ACTIVATION>
     438:	08 95       	ret
     43a:	47 e3       	ldi	r20, 0x37	; 55
     43c:	61 e4       	ldi	r22, 0x41	; 65
     43e:	80 e0       	ldi	r24, 0x00	; 0
     440:	90 e0       	ldi	r25, 0x00	; 0
     442:	0e 94 94 01 	call	0x328	; 0x328 <ACTIVATION>
     446:	08 95       	ret
     448:	43 e2       	ldi	r20, 0x23	; 35
     44a:	6d e2       	ldi	r22, 0x2D	; 45
     44c:	8c ef       	ldi	r24, 0xFC	; 252
     44e:	9f ef       	ldi	r25, 0xFF	; 255
     450:	0e 94 94 01 	call	0x328	; 0x328 <ACTIVATION>
     454:	08 95       	ret
     456:	4e e1       	ldi	r20, 0x1E	; 30
     458:	68 e2       	ldi	r22, 0x28	; 40
     45a:	8b ef       	ldi	r24, 0xFB	; 251
     45c:	9f ef       	ldi	r25, 0xFF	; 255
     45e:	0e 94 94 01 	call	0x328	; 0x328 <ACTIVATION>
     462:	08 95       	ret

00000464 <on_off_7_segment>:
     464:	81 30       	cpi	r24, 0x01	; 1
     466:	39 f4       	brne	.+14     	; 0x476 <on_off_7_segment+0x12>
     468:	88 b3       	in	r24, 0x18	; 24
     46a:	8e 7f       	andi	r24, 0xFE	; 254
     46c:	88 bb       	out	0x18, r24	; 24
     46e:	88 b3       	in	r24, 0x18	; 24
     470:	8f 77       	andi	r24, 0x7F	; 127
     472:	88 bb       	out	0x18, r24	; 24
     474:	08 95       	ret
     476:	81 11       	cpse	r24, r1
     478:	06 c0       	rjmp	.+12     	; 0x486 <on_off_7_segment+0x22>
     47a:	88 b3       	in	r24, 0x18	; 24
     47c:	81 60       	ori	r24, 0x01	; 1
     47e:	88 bb       	out	0x18, r24	; 24
     480:	88 b3       	in	r24, 0x18	; 24
     482:	80 68       	ori	r24, 0x80	; 128
     484:	88 bb       	out	0x18, r24	; 24
     486:	08 95       	ret

00000488 <OFF_MODE>:
     488:	88 b3       	in	r24, 0x18	; 24
     48a:	8f 7d       	andi	r24, 0xDF	; 223
     48c:	88 bb       	out	0x18, r24	; 24
     48e:	88 b3       	in	r24, 0x18	; 24
     490:	8f 7b       	andi	r24, 0xBF	; 191
     492:	88 bb       	out	0x18, r24	; 24
     494:	88 b3       	in	r24, 0x18	; 24
     496:	8f 7e       	andi	r24, 0xEF	; 239
     498:	88 bb       	out	0x18, r24	; 24
     49a:	80 e0       	ldi	r24, 0x00	; 0
     49c:	0e 94 32 02 	call	0x464	; 0x464 <on_off_7_segment>
     4a0:	08 95       	ret

000004a2 <on_off_mode>:
     4a2:	b1 9b       	sbis	0x16, 1	; 22
     4a4:	0c c0       	rjmp	.+24     	; 0x4be <on_off_mode+0x1c>
     4a6:	80 91 69 00 	lds	r24, 0x0069	; 0x800069 <flag>
     4aa:	81 11       	cpse	r24, r1
     4ac:	08 c0       	rjmp	.+16     	; 0x4be <on_off_mode+0x1c>
     4ae:	81 e0       	ldi	r24, 0x01	; 1
     4b0:	80 93 69 00 	sts	0x0069, r24	; 0x800069 <flag>
     4b4:	80 93 68 00 	sts	0x0068, r24	; 0x800068 <Start_Mode>
     4b8:	b1 99       	sbic	0x16, 1	; 22
     4ba:	fe cf       	rjmp	.-4      	; 0x4b8 <on_off_mode+0x16>
     4bc:	08 95       	ret
     4be:	b1 9b       	sbis	0x16, 1	; 22
     4c0:	0a c0       	rjmp	.+20     	; 0x4d6 <on_off_mode+0x34>
     4c2:	80 91 69 00 	lds	r24, 0x0069	; 0x800069 <flag>
     4c6:	81 30       	cpi	r24, 0x01	; 1
     4c8:	31 f4       	brne	.+12     	; 0x4d6 <on_off_mode+0x34>
     4ca:	b1 99       	sbic	0x16, 1	; 22
     4cc:	fe cf       	rjmp	.-4      	; 0x4ca <on_off_mode+0x28>
     4ce:	10 92 69 00 	sts	0x0069, r1	; 0x800069 <flag>
     4d2:	0e 94 44 02 	call	0x488	; 0x488 <OFF_MODE>
     4d6:	08 95       	ret

000004d8 <I2C_Init>:
     4d8:	11 b8       	out	0x01, r1	; 1
     4da:	61 b1       	in	r22, 0x01	; 1
     4dc:	63 70       	andi	r22, 0x03	; 3
     4de:	70 e0       	ldi	r23, 0x00	; 0
     4e0:	80 e0       	ldi	r24, 0x00	; 0
     4e2:	90 e0       	ldi	r25, 0x00	; 0
     4e4:	0e 94 6c 05 	call	0xad8	; 0xad8 <__floatsisf>
     4e8:	9b 01       	movw	r18, r22
     4ea:	ac 01       	movw	r20, r24
     4ec:	60 e0       	ldi	r22, 0x00	; 0
     4ee:	70 e0       	ldi	r23, 0x00	; 0
     4f0:	80 e8       	ldi	r24, 0x80	; 128
     4f2:	90 e4       	ldi	r25, 0x40	; 64
     4f4:	0e 94 89 06 	call	0xd12	; 0xd12 <pow>
     4f8:	9b 01       	movw	r18, r22
     4fa:	ac 01       	movw	r20, r24
     4fc:	0e 94 58 04 	call	0x8b0	; 0x8b0 <__addsf3>
     500:	9b 01       	movw	r18, r22
     502:	ac 01       	movw	r20, r24
     504:	60 e0       	ldi	r22, 0x00	; 0
     506:	70 e0       	ldi	r23, 0x00	; 0
     508:	80 e8       	ldi	r24, 0x80	; 128
     50a:	9f e4       	ldi	r25, 0x4F	; 79
     50c:	0e 94 c9 04 	call	0x992	; 0x992 <__divsf3>
     510:	0e 94 3b 05 	call	0xa76	; 0xa76 <__fixunssfsi>
     514:	60 b9       	out	0x00, r22	; 0
     516:	08 95       	ret

00000518 <I2C_Start>:
     518:	94 ea       	ldi	r25, 0xA4	; 164
     51a:	96 bf       	out	0x36, r25	; 54
     51c:	06 b6       	in	r0, 0x36	; 54
     51e:	07 fe       	sbrs	r0, 7
     520:	fd cf       	rjmp	.-6      	; 0x51c <I2C_Start+0x4>
     522:	83 b9       	out	0x03, r24	; 3
     524:	84 e8       	ldi	r24, 0x84	; 132
     526:	86 bf       	out	0x36, r24	; 54
     528:	06 b6       	in	r0, 0x36	; 54
     52a:	07 fe       	sbrs	r0, 7
     52c:	fd cf       	rjmp	.-6      	; 0x528 <I2C_Start+0x10>
     52e:	80 e0       	ldi	r24, 0x00	; 0
     530:	08 95       	ret

00000532 <I2C_Repeated_Start>:
     532:	94 ea       	ldi	r25, 0xA4	; 164
     534:	96 bf       	out	0x36, r25	; 54
     536:	06 b6       	in	r0, 0x36	; 54
     538:	07 fe       	sbrs	r0, 7
     53a:	fd cf       	rjmp	.-6      	; 0x536 <I2C_Repeated_Start+0x4>
     53c:	83 b9       	out	0x03, r24	; 3
     53e:	84 e8       	ldi	r24, 0x84	; 132
     540:	86 bf       	out	0x36, r24	; 54
     542:	06 b6       	in	r0, 0x36	; 54
     544:	07 fe       	sbrs	r0, 7
     546:	fd cf       	rjmp	.-6      	; 0x542 <I2C_Repeated_Start+0x10>
     548:	80 e0       	ldi	r24, 0x00	; 0
     54a:	08 95       	ret

0000054c <I2C_Read_Nack>:
     54c:	84 e8       	ldi	r24, 0x84	; 132
     54e:	86 bf       	out	0x36, r24	; 54
     550:	06 b6       	in	r0, 0x36	; 54
     552:	07 fe       	sbrs	r0, 7
     554:	fd cf       	rjmp	.-6      	; 0x550 <I2C_Read_Nack+0x4>
     556:	83 b1       	in	r24, 0x03	; 3
     558:	08 95       	ret

0000055a <I2C_Stop>:
     55a:	84 e9       	ldi	r24, 0x94	; 148
     55c:	86 bf       	out	0x36, r24	; 54
     55e:	86 b7       	in	r24, 0x36	; 54
     560:	08 95       	ret

00000562 <decimal_to_bcd>:
     562:	9d ec       	ldi	r25, 0xCD	; 205
     564:	89 9f       	mul	r24, r25
     566:	91 2d       	mov	r25, r1
     568:	11 24       	eor	r1, r1
     56a:	96 95       	lsr	r25
     56c:	96 95       	lsr	r25
     56e:	96 95       	lsr	r25
     570:	39 2f       	mov	r19, r25
     572:	33 0f       	add	r19, r19
     574:	23 2f       	mov	r18, r19
     576:	22 0f       	add	r18, r18
     578:	22 0f       	add	r18, r18
     57a:	23 0f       	add	r18, r19
     57c:	82 1b       	sub	r24, r18
     57e:	30 e1       	ldi	r19, 0x10	; 16
     580:	93 9f       	mul	r25, r19
     582:	80 0d       	add	r24, r0
     584:	11 24       	eor	r1, r1
     586:	08 95       	ret

00000588 <current_water_temperature>:
     588:	81 e0       	ldi	r24, 0x01	; 1
     58a:	0e 94 32 02 	call	0x464	; 0x464 <on_off_7_segment>
     58e:	60 91 75 00 	lds	r22, 0x0075	; 0x800075 <x>
     592:	70 91 76 00 	lds	r23, 0x0076	; 0x800076 <x+0x1>
     596:	80 91 77 00 	lds	r24, 0x0077	; 0x800077 <x+0x2>
     59a:	90 91 78 00 	lds	r25, 0x0078	; 0x800078 <x+0x3>
     59e:	0e 94 3b 05 	call	0xa76	; 0xa76 <__fixunssfsi>
     5a2:	86 2f       	mov	r24, r22
     5a4:	0e 94 b1 02 	call	0x562	; 0x562 <decimal_to_bcd>
     5a8:	82 bb       	out	0x12, r24	; 18
     5aa:	08 95       	ret

000005ac <I2C_Write>:
     5ac:	0e 94 b1 02 	call	0x562	; 0x562 <decimal_to_bcd>
     5b0:	83 b9       	out	0x03, r24	; 3
     5b2:	84 e8       	ldi	r24, 0x84	; 132
     5b4:	86 bf       	out	0x36, r24	; 54
     5b6:	06 b6       	in	r0, 0x36	; 54
     5b8:	07 fe       	sbrs	r0, 7
     5ba:	fd cf       	rjmp	.-6      	; 0x5b6 <I2C_Write+0xa>
     5bc:	08 95       	ret

000005be <EEPROM_write_read>:

/*Driver Function  that stored data on EEPROM as a parameter then retrieve it by return it stored value.*/
u8 EEPROM_write_read(u8 stored_data)
{
     5be:	cf 93       	push	r28
     5c0:	c8 2f       	mov	r28, r24
	/* Declaration about Data that we will fetching it from EEPROM*/
	u8 data;
	//initialize the IIC Protocol
	I2C_Init();
     5c2:	0e 94 6c 02 	call	0x4d8	; 0x4d8 <I2C_Init>
	//Start IIC protocol with its address"0xA0"
	I2C_Start(0xA0);
     5c6:	80 ea       	ldi	r24, 0xA0	; 160
     5c8:	0e 94 8c 02 	call	0x518	; 0x518 <I2C_Start>
	//Stored the required Data.
	I2C_Write(stored_data);
     5cc:	8c 2f       	mov	r24, r28
     5ce:	0e 94 d6 02 	call	0x5ac	; 0x5ac <I2C_Write>
	//Restart to read this Data that user stored it @ FIRST
	I2C_Repeated_Start(0xA1);
     5d2:	81 ea       	ldi	r24, 0xA1	; 161
     5d4:	0e 94 99 02 	call	0x532	; 0x532 <I2C_Repeated_Start>
	//Retrieve data at this variable .
	data=I2C_Read_Nack ();
     5d8:	0e 94 a6 02 	call	0x54c	; 0x54c <I2C_Read_Nack>
     5dc:	c8 2f       	mov	r28, r24
	//Stop COM between Layers.
	I2C_Stop();
     5de:	0e 94 ad 02 	call	0x55a	; 0x55a <I2C_Stop>
	//return the data that stored From this function.
	return data;
	
}
     5e2:	8c 2f       	mov	r24, r28
     5e4:	cf 91       	pop	r28
     5e6:	08 95       	ret

000005e8 <setting_temp>:
{
	/*
	In case user press upper switch 
	and the counter does not reach its top value"3"
	*/
	if(PINB&(1<<3)&&counter<3 )
     5e8:	b3 9b       	sbis	0x16, 3	; 22
     5ea:	1d c0       	rjmp	.+58     	; 0x626 <setting_temp+0x3e>
     5ec:	80 91 6b 00 	lds	r24, 0x006B	; 0x80006b <counter>
     5f0:	90 91 6c 00 	lds	r25, 0x006C	; 0x80006c <counter+0x1>
     5f4:	83 30       	cpi	r24, 0x03	; 3
     5f6:	91 05       	cpc	r25, r1
     5f8:	b4 f4       	brge	.+44     	; 0x626 <setting_temp+0x3e>
	{
		//increment counter by 1
		counter++;
     5fa:	01 96       	adiw	r24, 0x01	; 1
     5fc:	90 93 6c 00 	sts	0x006C, r25	; 0x80006c <counter+0x1>
     600:	80 93 6b 00 	sts	0x006B, r24	; 0x80006b <counter>
		//Begin counting From 0 in Setting Mode.
		counter_for_Timer=0;   
     604:	10 92 60 00 	sts	0x0060, r1	; 0x800060 <__DATA_REGION_ORIGIN__>
     608:	10 92 61 00 	sts	0x0061, r1	; 0x800061 <__DATA_REGION_ORIGIN__+0x1>
     60c:	10 92 62 00 	sts	0x0062, r1	; 0x800062 <__DATA_REGION_ORIGIN__+0x2>
     610:	10 92 63 00 	sts	0x0063, r1	; 0x800063 <__DATA_REGION_ORIGIN__+0x3>
     614:	10 92 64 00 	sts	0x0064, r1	; 0x800064 <__DATA_REGION_ORIGIN__+0x4>
     618:	10 92 65 00 	sts	0x0065, r1	; 0x800065 <__DATA_REGION_ORIGIN__+0x5>
     61c:	10 92 66 00 	sts	0x0066, r1	; 0x800066 <__DATA_REGION_ORIGIN__+0x6>
     620:	10 92 67 00 	sts	0x0067, r1	; 0x800067 <__DATA_REGION_ORIGIN__+0x7>
     624:	34 c0       	rjmp	.+104    	; 0x68e <setting_temp+0xa6>
	}
	/*
	In case user press Lower switch 
	and the counter does not reach its lower value"-5"
	*/
	else if(PINB&(1<<2)&&counter>-5)
     626:	b2 9b       	sbis	0x16, 2	; 22
     628:	1e c0       	rjmp	.+60     	; 0x666 <setting_temp+0x7e>
     62a:	80 91 6b 00 	lds	r24, 0x006B	; 0x80006b <counter>
     62e:	90 91 6c 00 	lds	r25, 0x006C	; 0x80006c <counter+0x1>
     632:	8c 3f       	cpi	r24, 0xFC	; 252
     634:	2f ef       	ldi	r18, 0xFF	; 255
     636:	92 07       	cpc	r25, r18
     638:	b4 f0       	brlt	.+44     	; 0x666 <setting_temp+0x7e>
	{
		//decrement counter by 1
		counter--;
     63a:	01 97       	sbiw	r24, 0x01	; 1
     63c:	90 93 6c 00 	sts	0x006C, r25	; 0x80006c <counter+0x1>
     640:	80 93 6b 00 	sts	0x006B, r24	; 0x80006b <counter>
		//Begin counting From 0 in Setting Mode.
		counter_for_Timer=0;
     644:	10 92 60 00 	sts	0x0060, r1	; 0x800060 <__DATA_REGION_ORIGIN__>
     648:	10 92 61 00 	sts	0x0061, r1	; 0x800061 <__DATA_REGION_ORIGIN__+0x1>
     64c:	10 92 62 00 	sts	0x0062, r1	; 0x800062 <__DATA_REGION_ORIGIN__+0x2>
     650:	10 92 63 00 	sts	0x0063, r1	; 0x800063 <__DATA_REGION_ORIGIN__+0x3>
     654:	10 92 64 00 	sts	0x0064, r1	; 0x800064 <__DATA_REGION_ORIGIN__+0x4>
     658:	10 92 65 00 	sts	0x0065, r1	; 0x800065 <__DATA_REGION_ORIGIN__+0x5>
     65c:	10 92 66 00 	sts	0x0066, r1	; 0x800066 <__DATA_REGION_ORIGIN__+0x6>
     660:	10 92 67 00 	sts	0x0067, r1	; 0x800067 <__DATA_REGION_ORIGIN__+0x7>
     664:	14 c0       	rjmp	.+40     	; 0x68e <setting_temp+0xa6>
	}
	/*
	For more Safety ,In case user press Lower switch 
	and upper switch together.
	*/
	else if (PINB&(1<<3) || PINB&(1<<2))
     666:	b3 99       	sbic	0x16, 3	; 22
     668:	02 c0       	rjmp	.+4      	; 0x66e <setting_temp+0x86>
     66a:	b2 9b       	sbis	0x16, 2	; 22
     66c:	10 c0       	rjmp	.+32     	; 0x68e <setting_temp+0xa6>
	{
		/*Begin counting From 0 in Setting Mode,
		waiting releasing each or both buttons.
		*/
		counter_for_Timer=0;
     66e:	10 92 60 00 	sts	0x0060, r1	; 0x800060 <__DATA_REGION_ORIGIN__>
     672:	10 92 61 00 	sts	0x0061, r1	; 0x800061 <__DATA_REGION_ORIGIN__+0x1>
     676:	10 92 62 00 	sts	0x0062, r1	; 0x800062 <__DATA_REGION_ORIGIN__+0x2>
     67a:	10 92 63 00 	sts	0x0063, r1	; 0x800063 <__DATA_REGION_ORIGIN__+0x3>
     67e:	10 92 64 00 	sts	0x0064, r1	; 0x800064 <__DATA_REGION_ORIGIN__+0x4>
     682:	10 92 65 00 	sts	0x0065, r1	; 0x800065 <__DATA_REGION_ORIGIN__+0x5>
     686:	10 92 66 00 	sts	0x0066, r1	; 0x800066 <__DATA_REGION_ORIGIN__+0x6>
     68a:	10 92 67 00 	sts	0x0067, r1	; 0x800067 <__DATA_REGION_ORIGIN__+0x7>
	}
	
	/*After take the decision , the setting temperature driver 
	service will sent the data that chosen user by to 7 segments
	*/
	switch(counter) //For counter statement
     68e:	e0 91 6b 00 	lds	r30, 0x006B	; 0x80006b <counter>
     692:	f0 91 6c 00 	lds	r31, 0x006C	; 0x80006c <counter+0x1>
     696:	35 96       	adiw	r30, 0x05	; 5
     698:	e9 30       	cpi	r30, 0x09	; 9
     69a:	f1 05       	cpc	r31, r1
     69c:	f0 f4       	brcc	.+60     	; 0x6da <setting_temp+0xf2>
     69e:	ed 5c       	subi	r30, 0xCD	; 205
     6a0:	ff 4f       	sbci	r31, 0xFF	; 255
     6a2:	0c 94 0e 08 	jmp	0x101c	; 0x101c <__tablejump2__>
		*/
		
		/* In case of counter=1;     
		 65 Celisuis sent to 7segments*/
		case 1:
		PORTD=0x65;
     6a6:	85 e6       	ldi	r24, 0x65	; 101
     6a8:	82 bb       	out	0x12, r24	; 18
		break;
     6aa:	17 c0       	rjmp	.+46     	; 0x6da <setting_temp+0xf2>
		
		/* In case of counter=-1;     
		 55 Celisuis sent to 7segments*/
		case -1:
		PORTD=0x55;
     6ac:	85 e5       	ldi	r24, 0x55	; 85
     6ae:	82 bb       	out	0x12, r24	; 18
		break;
     6b0:	14 c0       	rjmp	.+40     	; 0x6da <setting_temp+0xf2>
		
		/* In case of counter=2;     
		 70 Celisuis sent to 7segments*/
		case 2:
		PORTD=0x70;
     6b2:	80 e7       	ldi	r24, 0x70	; 112
     6b4:	82 bb       	out	0x12, r24	; 18
		break;
     6b6:	11 c0       	rjmp	.+34     	; 0x6da <setting_temp+0xf2>
		
		/* In case of counter=-2;     
		 50 Celisuis sent to 7segments*/
		case -2:
		PORTD=0x50;
     6b8:	80 e5       	ldi	r24, 0x50	; 80
     6ba:	82 bb       	out	0x12, r24	; 18
		break;
     6bc:	0e c0       	rjmp	.+28     	; 0x6da <setting_temp+0xf2>
		
		/* In case of counter=3;     
		 75 Celisuis sent to 7segments*/
		case 3:
		PORTD=0x75;
     6be:	85 e7       	ldi	r24, 0x75	; 117
     6c0:	82 bb       	out	0x12, r24	; 18
		break;
     6c2:	0b c0       	rjmp	.+22     	; 0x6da <setting_temp+0xf2>
		
		/* In case of counter=-3;     
		 45 Celisuis sent to 7segments*/
		case -3:
		PORTD=0x45;
     6c4:	85 e4       	ldi	r24, 0x45	; 69
     6c6:	82 bb       	out	0x12, r24	; 18
		break;
     6c8:	08 c0       	rjmp	.+16     	; 0x6da <setting_temp+0xf2>
		
		/* In case of counter=0;     
		 60 Celisuis sent to 7segments*/
		case 0:
		PORTD=0x60;
     6ca:	80 e6       	ldi	r24, 0x60	; 96
     6cc:	82 bb       	out	0x12, r24	; 18
		break;
     6ce:	05 c0       	rjmp	.+10     	; 0x6da <setting_temp+0xf2>
		
		/* In case of counter=-4;     
		 40 Celisuis sent to 7segments*/
		case -4:
		PORTD=0x40;
     6d0:	80 e4       	ldi	r24, 0x40	; 64
     6d2:	82 bb       	out	0x12, r24	; 18
		break;
     6d4:	02 c0       	rjmp	.+4      	; 0x6da <setting_temp+0xf2>
		
		/* In case of counter=-5;     
		 35 Celisuis sent to 7segments*/
		case -5:
		PORTD=0x35;
     6d6:	85 e3       	ldi	r24, 0x35	; 53
     6d8:	82 bb       	out	0x12, r24	; 18
	to write value of counter that store 
	it in external Read only memory
	then retrieve the storing value of counter
	 to set on the system and display in setting mode.
*/
EEPROM_write_read(counter);   
     6da:	80 91 6b 00 	lds	r24, 0x006B	; 0x80006b <counter>
     6de:	0e 94 df 02 	call	0x5be	; 0x5be <EEPROM_write_read>
     6e2:	08 95       	ret

000006e4 <ON_MODE_Process>:
{
	/*
	While The Electric water Heater set;
	Execute The System.
	*/
	while(flag==1)
     6e4:	8d c0       	rjmp	.+282    	; 0x800 <ON_MODE_Process+0x11c>
	{
		//According to requirements, Specifications –Seven Segments.1|2
		current_water_temperature();
     6e6:	0e 94 c4 02 	call	0x588	; 0x588 <current_water_temperature>
		to the requirements "Specifications
		–Heating/Cooling Elements"
		of setting temperature,
		Fluctions.
		*/
		ELEMENTS();
     6ea:	0e 94 e6 01 	call	0x3cc	; 0x3cc <ELEMENTS>
		
		//waiting until user pressed ON/OFF Button.
		//To disactivate the Electric water Heater.
		on_off_mode();
     6ee:	0e 94 51 02 	call	0x4a2	; 0x4a2 <on_off_mode>
		
		/*
		In case user press upper or lower buttons
		*/
		if(((INPUT_BIT(PINB,3) || INPUT_BIT(PINB,2))))
     6f2:	b3 99       	sbic	0x16, 3	; 22
     6f4:	5b c0       	rjmp	.+182    	; 0x7ac <ON_MODE_Process+0xc8>
     6f6:	b2 99       	sbic	0x16, 2	; 22
     6f8:	59 c0       	rjmp	.+178    	; 0x7ac <ON_MODE_Process+0xc8>
     6fa:	82 c0       	rjmp	.+260    	; 0x800 <ON_MODE_Process+0x11c>
		
		/******** First___half____cycle********/
		
		
	//SET the powering of seven segments .
              on_off_7_segment(1);
     6fc:	81 e0       	ldi	r24, 0x01	; 1
     6fe:	0e 94 32 02 	call	0x464	; 0x464 <on_off_7_segment>
			  permit user to control setting Mode
			  by setting the temperature according to
			  raise,lower temperature in
			  the Electric water Heater.
			  */
				setting_temp();
     702:	0e 94 f4 02 	call	0x5e8	; 0x5e8 <setting_temp>
				Electric water Heater according
				to the requirements "Specifications
				–Heating/Cooling Elements"
				of setting temperature,
				Fluctions.*/
				ELEMENTS();
     706:	0e 94 e6 01 	call	0x3cc	; 0x3cc <ELEMENTS>
				//waiting until user pressed ON/OFF Button.
				//To disactivate the Electric water Heater.
				on_off_mode();
     70a:	0e 94 51 02 	call	0x4a2	; 0x4a2 <on_off_mode>
				//per half cycle increment count by 1
				counter_for_Timer++;
     70e:	20 91 60 00 	lds	r18, 0x0060	; 0x800060 <__DATA_REGION_ORIGIN__>
     712:	30 91 61 00 	lds	r19, 0x0061	; 0x800061 <__DATA_REGION_ORIGIN__+0x1>
     716:	40 91 62 00 	lds	r20, 0x0062	; 0x800062 <__DATA_REGION_ORIGIN__+0x2>
     71a:	50 91 63 00 	lds	r21, 0x0063	; 0x800063 <__DATA_REGION_ORIGIN__+0x3>
     71e:	60 91 64 00 	lds	r22, 0x0064	; 0x800064 <__DATA_REGION_ORIGIN__+0x4>
     722:	70 91 65 00 	lds	r23, 0x0065	; 0x800065 <__DATA_REGION_ORIGIN__+0x5>
     726:	80 91 66 00 	lds	r24, 0x0066	; 0x800066 <__DATA_REGION_ORIGIN__+0x6>
     72a:	90 91 67 00 	lds	r25, 0x0067	; 0x800067 <__DATA_REGION_ORIGIN__+0x7>
     72e:	a1 e0       	ldi	r26, 0x01	; 1
     730:	0e 94 14 08 	call	0x1028	; 0x1028 <__adddi3_s8>
     734:	20 93 60 00 	sts	0x0060, r18	; 0x800060 <__DATA_REGION_ORIGIN__>
     738:	30 93 61 00 	sts	0x0061, r19	; 0x800061 <__DATA_REGION_ORIGIN__+0x1>
     73c:	40 93 62 00 	sts	0x0062, r20	; 0x800062 <__DATA_REGION_ORIGIN__+0x2>
     740:	50 93 63 00 	sts	0x0063, r21	; 0x800063 <__DATA_REGION_ORIGIN__+0x3>
     744:	60 93 64 00 	sts	0x0064, r22	; 0x800064 <__DATA_REGION_ORIGIN__+0x4>
     748:	70 93 65 00 	sts	0x0065, r23	; 0x800065 <__DATA_REGION_ORIGIN__+0x5>
     74c:	80 93 66 00 	sts	0x0066, r24	; 0x800066 <__DATA_REGION_ORIGIN__+0x6>
     750:	90 93 67 00 	sts	0x0067, r25	; 0x800067 <__DATA_REGION_ORIGIN__+0x7>
				
				/******** Second___half____cycle********/
				
				//SET the powering of seven segments.
				//Toggle it seven segments is from requirements of specifications.
				on_off_7_segment(0);
     754:	80 e0       	ldi	r24, 0x00	; 0
     756:	0e 94 32 02 	call	0x464	; 0x464 <on_off_7_segment>
				/*Setting temperature Mode again*/
				setting_temp();
     75a:	0e 94 f4 02 	call	0x5e8	; 0x5e8 <setting_temp>
				/*Controlling Elements again*/
				ELEMENTS();
     75e:	0e 94 e6 01 	call	0x3cc	; 0x3cc <ELEMENTS>
				//waiting until user pressed ON/OFF Button.
				//To disactivate the Electric water Heater.
				on_off_mode();
     762:	0e 94 51 02 	call	0x4a2	; 0x4a2 <on_off_mode>
				//per half cycle increment count by 1
				counter_for_Timer++;
     766:	20 91 60 00 	lds	r18, 0x0060	; 0x800060 <__DATA_REGION_ORIGIN__>
     76a:	30 91 61 00 	lds	r19, 0x0061	; 0x800061 <__DATA_REGION_ORIGIN__+0x1>
     76e:	40 91 62 00 	lds	r20, 0x0062	; 0x800062 <__DATA_REGION_ORIGIN__+0x2>
     772:	50 91 63 00 	lds	r21, 0x0063	; 0x800063 <__DATA_REGION_ORIGIN__+0x3>
     776:	60 91 64 00 	lds	r22, 0x0064	; 0x800064 <__DATA_REGION_ORIGIN__+0x4>
     77a:	70 91 65 00 	lds	r23, 0x0065	; 0x800065 <__DATA_REGION_ORIGIN__+0x5>
     77e:	80 91 66 00 	lds	r24, 0x0066	; 0x800066 <__DATA_REGION_ORIGIN__+0x6>
     782:	90 91 67 00 	lds	r25, 0x0067	; 0x800067 <__DATA_REGION_ORIGIN__+0x7>
     786:	a1 e0       	ldi	r26, 0x01	; 1
     788:	0e 94 14 08 	call	0x1028	; 0x1028 <__adddi3_s8>
     78c:	20 93 60 00 	sts	0x0060, r18	; 0x800060 <__DATA_REGION_ORIGIN__>
     790:	30 93 61 00 	sts	0x0061, r19	; 0x800061 <__DATA_REGION_ORIGIN__+0x1>
     794:	40 93 62 00 	sts	0x0062, r20	; 0x800062 <__DATA_REGION_ORIGIN__+0x2>
     798:	50 93 63 00 	sts	0x0063, r21	; 0x800063 <__DATA_REGION_ORIGIN__+0x3>
     79c:	60 93 64 00 	sts	0x0064, r22	; 0x800064 <__DATA_REGION_ORIGIN__+0x4>
     7a0:	70 93 65 00 	sts	0x0065, r23	; 0x800065 <__DATA_REGION_ORIGIN__+0x5>
     7a4:	80 93 66 00 	sts	0x0066, r24	; 0x800066 <__DATA_REGION_ORIGIN__+0x6>
     7a8:	90 93 67 00 	sts	0x0067, r25	; 0x800067 <__DATA_REGION_ORIGIN__+0x7>
			/*
			while counter does not exceeded 5 second  
			and For more safety must have evidence that
			Electric water Heater is activate.
			*/
			while( counter_for_Timer<10 &&flag==1 ) 
     7ac:	20 91 60 00 	lds	r18, 0x0060	; 0x800060 <__DATA_REGION_ORIGIN__>
     7b0:	30 91 61 00 	lds	r19, 0x0061	; 0x800061 <__DATA_REGION_ORIGIN__+0x1>
     7b4:	40 91 62 00 	lds	r20, 0x0062	; 0x800062 <__DATA_REGION_ORIGIN__+0x2>
     7b8:	50 91 63 00 	lds	r21, 0x0063	; 0x800063 <__DATA_REGION_ORIGIN__+0x3>
     7bc:	60 91 64 00 	lds	r22, 0x0064	; 0x800064 <__DATA_REGION_ORIGIN__+0x4>
     7c0:	70 91 65 00 	lds	r23, 0x0065	; 0x800065 <__DATA_REGION_ORIGIN__+0x5>
     7c4:	80 91 66 00 	lds	r24, 0x0066	; 0x800066 <__DATA_REGION_ORIGIN__+0x6>
     7c8:	90 91 67 00 	lds	r25, 0x0067	; 0x800067 <__DATA_REGION_ORIGIN__+0x7>
     7cc:	a9 e0       	ldi	r26, 0x09	; 9
     7ce:	0e 94 20 08 	call	0x1040	; 0x1040 <__cmpdi2_s8>
     7d2:	09 f0       	breq	.+2      	; 0x7d6 <ON_MODE_Process+0xf2>
     7d4:	2c f4       	brge	.+10     	; 0x7e0 <ON_MODE_Process+0xfc>
     7d6:	80 91 69 00 	lds	r24, 0x0069	; 0x800069 <flag>
     7da:	81 30       	cpi	r24, 0x01	; 1
     7dc:	09 f4       	brne	.+2      	; 0x7e0 <ON_MODE_Process+0xfc>
     7de:	8e cf       	rjmp	.-228    	; 0x6fc <ON_MODE_Process+0x18>
				//per half cycle increment count by 1
				counter_for_Timer++;
				}
				/*After terminates the scope and the setting_tempereture mode is Exited.
				return The counter_for_Timer to its original initialization "0"*/
			counter_for_Timer=0;
     7e0:	10 92 60 00 	sts	0x0060, r1	; 0x800060 <__DATA_REGION_ORIGIN__>
     7e4:	10 92 61 00 	sts	0x0061, r1	; 0x800061 <__DATA_REGION_ORIGIN__+0x1>
     7e8:	10 92 62 00 	sts	0x0062, r1	; 0x800062 <__DATA_REGION_ORIGIN__+0x2>
     7ec:	10 92 63 00 	sts	0x0063, r1	; 0x800063 <__DATA_REGION_ORIGIN__+0x3>
     7f0:	10 92 64 00 	sts	0x0064, r1	; 0x800064 <__DATA_REGION_ORIGIN__+0x4>
     7f4:	10 92 65 00 	sts	0x0065, r1	; 0x800065 <__DATA_REGION_ORIGIN__+0x5>
     7f8:	10 92 66 00 	sts	0x0066, r1	; 0x800066 <__DATA_REGION_ORIGIN__+0x6>
     7fc:	10 92 67 00 	sts	0x0067, r1	; 0x800067 <__DATA_REGION_ORIGIN__+0x7>
{
	/*
	While The Electric water Heater set;
	Execute The System.
	*/
	while(flag==1)
     800:	80 91 69 00 	lds	r24, 0x0069	; 0x800069 <flag>
     804:	81 30       	cpi	r24, 0x01	; 1
     806:	09 f4       	brne	.+2      	; 0x80a <ON_MODE_Process+0x126>
     808:	6e cf       	rjmp	.-292    	; 0x6e6 <ON_MODE_Process+0x2>
				/*After terminates the scope and the setting_tempereture mode is Exited.
				return The counter_for_Timer to its original initialization "0"*/
			counter_for_Timer=0;
		}
	}
}
     80a:	08 95       	ret

0000080c <__vector_8>:



/* Interrupt service routine that activate each 100ms to read a temperature value */
ISR (TIMER1_OVF_vect)    // Timer1 ISR
{
     80c:	1f 92       	push	r1
     80e:	0f 92       	push	r0
     810:	0f b6       	in	r0, 0x3f	; 63
     812:	0f 92       	push	r0
     814:	11 24       	eor	r1, r1
     816:	2f 93       	push	r18
     818:	3f 93       	push	r19
     81a:	4f 93       	push	r20
     81c:	5f 93       	push	r21
     81e:	6f 93       	push	r22
     820:	7f 93       	push	r23
     822:	8f 93       	push	r24
     824:	9f 93       	push	r25
     826:	af 93       	push	r26
     828:	bf 93       	push	r27
     82a:	ef 93       	push	r30
     82c:	ff 93       	push	r31
	// for 100 ms at 16 MHz  in Bin "1111 1111 0110 0100" , in Hexa_decimal "FF64"
	TCNT1 = 65380; 
     82e:	84 e6       	ldi	r24, 0x64	; 100
     830:	9f ef       	ldi	r25, 0xFF	; 255
     832:	9d bd       	out	0x2d, r25	; 45
     834:	8c bd       	out	0x2c, r24	; 44
	
	  //read temperature each 100 ms 
		Temperature_reading(); 
     836:	0e 94 57 01 	call	0x2ae	; 0x2ae <Temperature_reading>
	
		}
     83a:	ff 91       	pop	r31
     83c:	ef 91       	pop	r30
     83e:	bf 91       	pop	r27
     840:	af 91       	pop	r26
     842:	9f 91       	pop	r25
     844:	8f 91       	pop	r24
     846:	7f 91       	pop	r23
     848:	6f 91       	pop	r22
     84a:	5f 91       	pop	r21
     84c:	4f 91       	pop	r20
     84e:	3f 91       	pop	r19
     850:	2f 91       	pop	r18
     852:	0f 90       	pop	r0
     854:	0f be       	out	0x3f, r0	; 63
     856:	0f 90       	pop	r0
     858:	1f 90       	pop	r1
     85a:	18 95       	reti

0000085c <INT_interrupt>:

/*Function to initialized the internal interrupt Timer1                       */
void INT_interrupt (void)
{
	 // for 100 ms at 16 MHz  in Bin "1111 1111 0110 0100" , in Hexa_decimal "FF64" 
	TCNT1 = 65380;  
     85c:	84 e6       	ldi	r24, 0x64	; 100
     85e:	9f ef       	ldi	r25, 0xFF	; 255
     860:	9d bd       	out	0x2d, r25	; 45
     862:	8c bd       	out	0x2c, r24	; 44
	//Reset TCCR1A register
	TCCR1A = 0x00; 
     864:	1f bc       	out	0x2f, r1	; 47
	// Timer mode with 1024 pre_scaler
	TCCR1B = (1<<CS10) | (1<<CS12);  
     866:	85 e0       	ldi	r24, 0x05	; 5
     868:	8e bd       	out	0x2e, r24	; 46
	// Enable timer1 overflow interrupt(TOIE1)
	TIMSK = (1 << TOIE1) ;  
     86a:	84 e0       	ldi	r24, 0x04	; 4
     86c:	89 bf       	out	0x39, r24	; 57
	 // Enable global interrupts by setting global interrupt enable bit in SREG
	sei();        
     86e:	78 94       	sei
     870:	08 95       	ret

00000872 <main>:
 when your program is compiled.

the main function that executes in this project*/
int main(void)
{
	DATA_DIRECTION_REGISTER('O','I'); //Activate all input/Outputs sensors,actuators Pins 
     872:	69 e4       	ldi	r22, 0x49	; 73
     874:	8f e4       	ldi	r24, 0x4F	; 79
     876:	0e 94 a6 00 	call	0x14c	; 0x14c <DATA_DIRECTION_REGISTER>
INT_interrupt(); //Initialize the internal Timer 1 Driver
     87a:	0e 94 2e 04 	call	0x85c	; 0x85c <INT_interrupt>
ADC_init(); //Initialize the Analog/Digital converter Driver
     87e:	0e 94 91 00 	call	0x122	; 0x122 <ADC_init>
Init_VARIABLES('S','S','I','R','R','R'); //Initialize All variables that used in this project by required values.
     882:	0f 2e       	mov	r0, r31
     884:	f2 e5       	ldi	r31, 0x52	; 82
     886:	ef 2e       	mov	r14, r31
     888:	f0 2d       	mov	r31, r0
     88a:	02 e5       	ldi	r16, 0x52	; 82
     88c:	22 e5       	ldi	r18, 0x52	; 82
     88e:	49 e4       	ldi	r20, 0x49	; 73
     890:	63 e5       	ldi	r22, 0x53	; 83
     892:	83 e5       	ldi	r24, 0x53	; 83
     894:	0e 94 dc 00 	call	0x1b8	; 0x1b8 <Init_VARIABLES>
    /* super loop for repeating process infinitely number of cycles */
    while (1) 
    {
		on_off_mode();  // wait until user switch on the Heater.
     898:	0e 94 51 02 	call	0x4a2	; 0x4a2 <on_off_mode>
		if(flag==1) 
     89c:	80 91 69 00 	lds	r24, 0x0069	; 0x800069 <flag>
     8a0:	81 30       	cpi	r24, 0x01	; 1
     8a2:	d1 f7       	brne	.-12     	; 0x898 <main+0x26>
		; so that It will execute this scope*/
		{
			/*The main Process will execute that covered all requirements of project
			with asking user if the Heater is set/Reset for each cycle Until the Flag 
			reset terminates this scope. */
			ON_MODE_Process (); 
     8a4:	0e 94 72 03 	call	0x6e4	; 0x6e4 <ON_MODE_Process>
			/*Monitoring On/OFF mode the change the state of flag according to On/OFF switch*/
			on_off_mode();
     8a8:	0e 94 51 02 	call	0x4a2	; 0x4a2 <on_off_mode>
     8ac:	f5 cf       	rjmp	.-22     	; 0x898 <main+0x26>

000008ae <__subsf3>:
     8ae:	50 58       	subi	r21, 0x80	; 128

000008b0 <__addsf3>:
     8b0:	bb 27       	eor	r27, r27
     8b2:	aa 27       	eor	r26, r26
     8b4:	0e 94 6f 04 	call	0x8de	; 0x8de <__addsf3x>
     8b8:	0c 94 e2 05 	jmp	0xbc4	; 0xbc4 <__fp_round>
     8bc:	0e 94 d4 05 	call	0xba8	; 0xba8 <__fp_pscA>
     8c0:	38 f0       	brcs	.+14     	; 0x8d0 <__addsf3+0x20>
     8c2:	0e 94 db 05 	call	0xbb6	; 0xbb6 <__fp_pscB>
     8c6:	20 f0       	brcs	.+8      	; 0x8d0 <__addsf3+0x20>
     8c8:	39 f4       	brne	.+14     	; 0x8d8 <__addsf3+0x28>
     8ca:	9f 3f       	cpi	r25, 0xFF	; 255
     8cc:	19 f4       	brne	.+6      	; 0x8d4 <__addsf3+0x24>
     8ce:	26 f4       	brtc	.+8      	; 0x8d8 <__addsf3+0x28>
     8d0:	0c 94 d1 05 	jmp	0xba2	; 0xba2 <__fp_nan>
     8d4:	0e f4       	brtc	.+2      	; 0x8d8 <__addsf3+0x28>
     8d6:	e0 95       	com	r30
     8d8:	e7 fb       	bst	r30, 7
     8da:	0c 94 cb 05 	jmp	0xb96	; 0xb96 <__fp_inf>

000008de <__addsf3x>:
     8de:	e9 2f       	mov	r30, r25
     8e0:	0e 94 f3 05 	call	0xbe6	; 0xbe6 <__fp_split3>
     8e4:	58 f3       	brcs	.-42     	; 0x8bc <__addsf3+0xc>
     8e6:	ba 17       	cp	r27, r26
     8e8:	62 07       	cpc	r22, r18
     8ea:	73 07       	cpc	r23, r19
     8ec:	84 07       	cpc	r24, r20
     8ee:	95 07       	cpc	r25, r21
     8f0:	20 f0       	brcs	.+8      	; 0x8fa <__addsf3x+0x1c>
     8f2:	79 f4       	brne	.+30     	; 0x912 <__addsf3x+0x34>
     8f4:	a6 f5       	brtc	.+104    	; 0x95e <__addsf3x+0x80>
     8f6:	0c 94 15 06 	jmp	0xc2a	; 0xc2a <__fp_zero>
     8fa:	0e f4       	brtc	.+2      	; 0x8fe <__addsf3x+0x20>
     8fc:	e0 95       	com	r30
     8fe:	0b 2e       	mov	r0, r27
     900:	ba 2f       	mov	r27, r26
     902:	a0 2d       	mov	r26, r0
     904:	0b 01       	movw	r0, r22
     906:	b9 01       	movw	r22, r18
     908:	90 01       	movw	r18, r0
     90a:	0c 01       	movw	r0, r24
     90c:	ca 01       	movw	r24, r20
     90e:	a0 01       	movw	r20, r0
     910:	11 24       	eor	r1, r1
     912:	ff 27       	eor	r31, r31
     914:	59 1b       	sub	r21, r25
     916:	99 f0       	breq	.+38     	; 0x93e <__addsf3x+0x60>
     918:	59 3f       	cpi	r21, 0xF9	; 249
     91a:	50 f4       	brcc	.+20     	; 0x930 <__addsf3x+0x52>
     91c:	50 3e       	cpi	r21, 0xE0	; 224
     91e:	68 f1       	brcs	.+90     	; 0x97a <__addsf3x+0x9c>
     920:	1a 16       	cp	r1, r26
     922:	f0 40       	sbci	r31, 0x00	; 0
     924:	a2 2f       	mov	r26, r18
     926:	23 2f       	mov	r18, r19
     928:	34 2f       	mov	r19, r20
     92a:	44 27       	eor	r20, r20
     92c:	58 5f       	subi	r21, 0xF8	; 248
     92e:	f3 cf       	rjmp	.-26     	; 0x916 <__addsf3x+0x38>
     930:	46 95       	lsr	r20
     932:	37 95       	ror	r19
     934:	27 95       	ror	r18
     936:	a7 95       	ror	r26
     938:	f0 40       	sbci	r31, 0x00	; 0
     93a:	53 95       	inc	r21
     93c:	c9 f7       	brne	.-14     	; 0x930 <__addsf3x+0x52>
     93e:	7e f4       	brtc	.+30     	; 0x95e <__addsf3x+0x80>
     940:	1f 16       	cp	r1, r31
     942:	ba 0b       	sbc	r27, r26
     944:	62 0b       	sbc	r22, r18
     946:	73 0b       	sbc	r23, r19
     948:	84 0b       	sbc	r24, r20
     94a:	ba f0       	brmi	.+46     	; 0x97a <__addsf3x+0x9c>
     94c:	91 50       	subi	r25, 0x01	; 1
     94e:	a1 f0       	breq	.+40     	; 0x978 <__addsf3x+0x9a>
     950:	ff 0f       	add	r31, r31
     952:	bb 1f       	adc	r27, r27
     954:	66 1f       	adc	r22, r22
     956:	77 1f       	adc	r23, r23
     958:	88 1f       	adc	r24, r24
     95a:	c2 f7       	brpl	.-16     	; 0x94c <__addsf3x+0x6e>
     95c:	0e c0       	rjmp	.+28     	; 0x97a <__addsf3x+0x9c>
     95e:	ba 0f       	add	r27, r26
     960:	62 1f       	adc	r22, r18
     962:	73 1f       	adc	r23, r19
     964:	84 1f       	adc	r24, r20
     966:	48 f4       	brcc	.+18     	; 0x97a <__addsf3x+0x9c>
     968:	87 95       	ror	r24
     96a:	77 95       	ror	r23
     96c:	67 95       	ror	r22
     96e:	b7 95       	ror	r27
     970:	f7 95       	ror	r31
     972:	9e 3f       	cpi	r25, 0xFE	; 254
     974:	08 f0       	brcs	.+2      	; 0x978 <__addsf3x+0x9a>
     976:	b0 cf       	rjmp	.-160    	; 0x8d8 <__addsf3+0x28>
     978:	93 95       	inc	r25
     97a:	88 0f       	add	r24, r24
     97c:	08 f0       	brcs	.+2      	; 0x980 <__addsf3x+0xa2>
     97e:	99 27       	eor	r25, r25
     980:	ee 0f       	add	r30, r30
     982:	97 95       	ror	r25
     984:	87 95       	ror	r24
     986:	08 95       	ret

00000988 <__cmpsf2>:
     988:	0e 94 a7 05 	call	0xb4e	; 0xb4e <__fp_cmp>
     98c:	08 f4       	brcc	.+2      	; 0x990 <__cmpsf2+0x8>
     98e:	81 e0       	ldi	r24, 0x01	; 1
     990:	08 95       	ret

00000992 <__divsf3>:
     992:	0e 94 dd 04 	call	0x9ba	; 0x9ba <__divsf3x>
     996:	0c 94 e2 05 	jmp	0xbc4	; 0xbc4 <__fp_round>
     99a:	0e 94 db 05 	call	0xbb6	; 0xbb6 <__fp_pscB>
     99e:	58 f0       	brcs	.+22     	; 0x9b6 <__divsf3+0x24>
     9a0:	0e 94 d4 05 	call	0xba8	; 0xba8 <__fp_pscA>
     9a4:	40 f0       	brcs	.+16     	; 0x9b6 <__divsf3+0x24>
     9a6:	29 f4       	brne	.+10     	; 0x9b2 <__divsf3+0x20>
     9a8:	5f 3f       	cpi	r21, 0xFF	; 255
     9aa:	29 f0       	breq	.+10     	; 0x9b6 <__divsf3+0x24>
     9ac:	0c 94 cb 05 	jmp	0xb96	; 0xb96 <__fp_inf>
     9b0:	51 11       	cpse	r21, r1
     9b2:	0c 94 16 06 	jmp	0xc2c	; 0xc2c <__fp_szero>
     9b6:	0c 94 d1 05 	jmp	0xba2	; 0xba2 <__fp_nan>

000009ba <__divsf3x>:
     9ba:	0e 94 f3 05 	call	0xbe6	; 0xbe6 <__fp_split3>
     9be:	68 f3       	brcs	.-38     	; 0x99a <__divsf3+0x8>

000009c0 <__divsf3_pse>:
     9c0:	99 23       	and	r25, r25
     9c2:	b1 f3       	breq	.-20     	; 0x9b0 <__divsf3+0x1e>
     9c4:	55 23       	and	r21, r21
     9c6:	91 f3       	breq	.-28     	; 0x9ac <__divsf3+0x1a>
     9c8:	95 1b       	sub	r25, r21
     9ca:	55 0b       	sbc	r21, r21
     9cc:	bb 27       	eor	r27, r27
     9ce:	aa 27       	eor	r26, r26
     9d0:	62 17       	cp	r22, r18
     9d2:	73 07       	cpc	r23, r19
     9d4:	84 07       	cpc	r24, r20
     9d6:	38 f0       	brcs	.+14     	; 0x9e6 <__divsf3_pse+0x26>
     9d8:	9f 5f       	subi	r25, 0xFF	; 255
     9da:	5f 4f       	sbci	r21, 0xFF	; 255
     9dc:	22 0f       	add	r18, r18
     9de:	33 1f       	adc	r19, r19
     9e0:	44 1f       	adc	r20, r20
     9e2:	aa 1f       	adc	r26, r26
     9e4:	a9 f3       	breq	.-22     	; 0x9d0 <__divsf3_pse+0x10>
     9e6:	35 d0       	rcall	.+106    	; 0xa52 <__divsf3_pse+0x92>
     9e8:	0e 2e       	mov	r0, r30
     9ea:	3a f0       	brmi	.+14     	; 0x9fa <__divsf3_pse+0x3a>
     9ec:	e0 e8       	ldi	r30, 0x80	; 128
     9ee:	32 d0       	rcall	.+100    	; 0xa54 <__divsf3_pse+0x94>
     9f0:	91 50       	subi	r25, 0x01	; 1
     9f2:	50 40       	sbci	r21, 0x00	; 0
     9f4:	e6 95       	lsr	r30
     9f6:	00 1c       	adc	r0, r0
     9f8:	ca f7       	brpl	.-14     	; 0x9ec <__divsf3_pse+0x2c>
     9fa:	2b d0       	rcall	.+86     	; 0xa52 <__divsf3_pse+0x92>
     9fc:	fe 2f       	mov	r31, r30
     9fe:	29 d0       	rcall	.+82     	; 0xa52 <__divsf3_pse+0x92>
     a00:	66 0f       	add	r22, r22
     a02:	77 1f       	adc	r23, r23
     a04:	88 1f       	adc	r24, r24
     a06:	bb 1f       	adc	r27, r27
     a08:	26 17       	cp	r18, r22
     a0a:	37 07       	cpc	r19, r23
     a0c:	48 07       	cpc	r20, r24
     a0e:	ab 07       	cpc	r26, r27
     a10:	b0 e8       	ldi	r27, 0x80	; 128
     a12:	09 f0       	breq	.+2      	; 0xa16 <__divsf3_pse+0x56>
     a14:	bb 0b       	sbc	r27, r27
     a16:	80 2d       	mov	r24, r0
     a18:	bf 01       	movw	r22, r30
     a1a:	ff 27       	eor	r31, r31
     a1c:	93 58       	subi	r25, 0x83	; 131
     a1e:	5f 4f       	sbci	r21, 0xFF	; 255
     a20:	3a f0       	brmi	.+14     	; 0xa30 <__divsf3_pse+0x70>
     a22:	9e 3f       	cpi	r25, 0xFE	; 254
     a24:	51 05       	cpc	r21, r1
     a26:	78 f0       	brcs	.+30     	; 0xa46 <__divsf3_pse+0x86>
     a28:	0c 94 cb 05 	jmp	0xb96	; 0xb96 <__fp_inf>
     a2c:	0c 94 16 06 	jmp	0xc2c	; 0xc2c <__fp_szero>
     a30:	5f 3f       	cpi	r21, 0xFF	; 255
     a32:	e4 f3       	brlt	.-8      	; 0xa2c <__divsf3_pse+0x6c>
     a34:	98 3e       	cpi	r25, 0xE8	; 232
     a36:	d4 f3       	brlt	.-12     	; 0xa2c <__divsf3_pse+0x6c>
     a38:	86 95       	lsr	r24
     a3a:	77 95       	ror	r23
     a3c:	67 95       	ror	r22
     a3e:	b7 95       	ror	r27
     a40:	f7 95       	ror	r31
     a42:	9f 5f       	subi	r25, 0xFF	; 255
     a44:	c9 f7       	brne	.-14     	; 0xa38 <__divsf3_pse+0x78>
     a46:	88 0f       	add	r24, r24
     a48:	91 1d       	adc	r25, r1
     a4a:	96 95       	lsr	r25
     a4c:	87 95       	ror	r24
     a4e:	97 f9       	bld	r25, 7
     a50:	08 95       	ret
     a52:	e1 e0       	ldi	r30, 0x01	; 1
     a54:	66 0f       	add	r22, r22
     a56:	77 1f       	adc	r23, r23
     a58:	88 1f       	adc	r24, r24
     a5a:	bb 1f       	adc	r27, r27
     a5c:	62 17       	cp	r22, r18
     a5e:	73 07       	cpc	r23, r19
     a60:	84 07       	cpc	r24, r20
     a62:	ba 07       	cpc	r27, r26
     a64:	20 f0       	brcs	.+8      	; 0xa6e <__divsf3_pse+0xae>
     a66:	62 1b       	sub	r22, r18
     a68:	73 0b       	sbc	r23, r19
     a6a:	84 0b       	sbc	r24, r20
     a6c:	ba 0b       	sbc	r27, r26
     a6e:	ee 1f       	adc	r30, r30
     a70:	88 f7       	brcc	.-30     	; 0xa54 <__divsf3_pse+0x94>
     a72:	e0 95       	com	r30
     a74:	08 95       	ret

00000a76 <__fixunssfsi>:
     a76:	0e 94 fb 05 	call	0xbf6	; 0xbf6 <__fp_splitA>
     a7a:	88 f0       	brcs	.+34     	; 0xa9e <__fixunssfsi+0x28>
     a7c:	9f 57       	subi	r25, 0x7F	; 127
     a7e:	98 f0       	brcs	.+38     	; 0xaa6 <__fixunssfsi+0x30>
     a80:	b9 2f       	mov	r27, r25
     a82:	99 27       	eor	r25, r25
     a84:	b7 51       	subi	r27, 0x17	; 23
     a86:	b0 f0       	brcs	.+44     	; 0xab4 <__fixunssfsi+0x3e>
     a88:	e1 f0       	breq	.+56     	; 0xac2 <__fixunssfsi+0x4c>
     a8a:	66 0f       	add	r22, r22
     a8c:	77 1f       	adc	r23, r23
     a8e:	88 1f       	adc	r24, r24
     a90:	99 1f       	adc	r25, r25
     a92:	1a f0       	brmi	.+6      	; 0xa9a <__fixunssfsi+0x24>
     a94:	ba 95       	dec	r27
     a96:	c9 f7       	brne	.-14     	; 0xa8a <__fixunssfsi+0x14>
     a98:	14 c0       	rjmp	.+40     	; 0xac2 <__fixunssfsi+0x4c>
     a9a:	b1 30       	cpi	r27, 0x01	; 1
     a9c:	91 f0       	breq	.+36     	; 0xac2 <__fixunssfsi+0x4c>
     a9e:	0e 94 15 06 	call	0xc2a	; 0xc2a <__fp_zero>
     aa2:	b1 e0       	ldi	r27, 0x01	; 1
     aa4:	08 95       	ret
     aa6:	0c 94 15 06 	jmp	0xc2a	; 0xc2a <__fp_zero>
     aaa:	67 2f       	mov	r22, r23
     aac:	78 2f       	mov	r23, r24
     aae:	88 27       	eor	r24, r24
     ab0:	b8 5f       	subi	r27, 0xF8	; 248
     ab2:	39 f0       	breq	.+14     	; 0xac2 <__fixunssfsi+0x4c>
     ab4:	b9 3f       	cpi	r27, 0xF9	; 249
     ab6:	cc f3       	brlt	.-14     	; 0xaaa <__fixunssfsi+0x34>
     ab8:	86 95       	lsr	r24
     aba:	77 95       	ror	r23
     abc:	67 95       	ror	r22
     abe:	b3 95       	inc	r27
     ac0:	d9 f7       	brne	.-10     	; 0xab8 <__fixunssfsi+0x42>
     ac2:	3e f4       	brtc	.+14     	; 0xad2 <__fixunssfsi+0x5c>
     ac4:	90 95       	com	r25
     ac6:	80 95       	com	r24
     ac8:	70 95       	com	r23
     aca:	61 95       	neg	r22
     acc:	7f 4f       	sbci	r23, 0xFF	; 255
     ace:	8f 4f       	sbci	r24, 0xFF	; 255
     ad0:	9f 4f       	sbci	r25, 0xFF	; 255
     ad2:	08 95       	ret

00000ad4 <__floatunsisf>:
     ad4:	e8 94       	clt
     ad6:	09 c0       	rjmp	.+18     	; 0xaea <__floatsisf+0x12>

00000ad8 <__floatsisf>:
     ad8:	97 fb       	bst	r25, 7
     ada:	3e f4       	brtc	.+14     	; 0xaea <__floatsisf+0x12>
     adc:	90 95       	com	r25
     ade:	80 95       	com	r24
     ae0:	70 95       	com	r23
     ae2:	61 95       	neg	r22
     ae4:	7f 4f       	sbci	r23, 0xFF	; 255
     ae6:	8f 4f       	sbci	r24, 0xFF	; 255
     ae8:	9f 4f       	sbci	r25, 0xFF	; 255
     aea:	99 23       	and	r25, r25
     aec:	a9 f0       	breq	.+42     	; 0xb18 <__floatsisf+0x40>
     aee:	f9 2f       	mov	r31, r25
     af0:	96 e9       	ldi	r25, 0x96	; 150
     af2:	bb 27       	eor	r27, r27
     af4:	93 95       	inc	r25
     af6:	f6 95       	lsr	r31
     af8:	87 95       	ror	r24
     afa:	77 95       	ror	r23
     afc:	67 95       	ror	r22
     afe:	b7 95       	ror	r27
     b00:	f1 11       	cpse	r31, r1
     b02:	f8 cf       	rjmp	.-16     	; 0xaf4 <__floatsisf+0x1c>
     b04:	fa f4       	brpl	.+62     	; 0xb44 <__floatsisf+0x6c>
     b06:	bb 0f       	add	r27, r27
     b08:	11 f4       	brne	.+4      	; 0xb0e <__floatsisf+0x36>
     b0a:	60 ff       	sbrs	r22, 0
     b0c:	1b c0       	rjmp	.+54     	; 0xb44 <__floatsisf+0x6c>
     b0e:	6f 5f       	subi	r22, 0xFF	; 255
     b10:	7f 4f       	sbci	r23, 0xFF	; 255
     b12:	8f 4f       	sbci	r24, 0xFF	; 255
     b14:	9f 4f       	sbci	r25, 0xFF	; 255
     b16:	16 c0       	rjmp	.+44     	; 0xb44 <__floatsisf+0x6c>
     b18:	88 23       	and	r24, r24
     b1a:	11 f0       	breq	.+4      	; 0xb20 <__floatsisf+0x48>
     b1c:	96 e9       	ldi	r25, 0x96	; 150
     b1e:	11 c0       	rjmp	.+34     	; 0xb42 <__floatsisf+0x6a>
     b20:	77 23       	and	r23, r23
     b22:	21 f0       	breq	.+8      	; 0xb2c <__floatsisf+0x54>
     b24:	9e e8       	ldi	r25, 0x8E	; 142
     b26:	87 2f       	mov	r24, r23
     b28:	76 2f       	mov	r23, r22
     b2a:	05 c0       	rjmp	.+10     	; 0xb36 <__floatsisf+0x5e>
     b2c:	66 23       	and	r22, r22
     b2e:	71 f0       	breq	.+28     	; 0xb4c <__floatsisf+0x74>
     b30:	96 e8       	ldi	r25, 0x86	; 134
     b32:	86 2f       	mov	r24, r22
     b34:	70 e0       	ldi	r23, 0x00	; 0
     b36:	60 e0       	ldi	r22, 0x00	; 0
     b38:	2a f0       	brmi	.+10     	; 0xb44 <__floatsisf+0x6c>
     b3a:	9a 95       	dec	r25
     b3c:	66 0f       	add	r22, r22
     b3e:	77 1f       	adc	r23, r23
     b40:	88 1f       	adc	r24, r24
     b42:	da f7       	brpl	.-10     	; 0xb3a <__floatsisf+0x62>
     b44:	88 0f       	add	r24, r24
     b46:	96 95       	lsr	r25
     b48:	87 95       	ror	r24
     b4a:	97 f9       	bld	r25, 7
     b4c:	08 95       	ret

00000b4e <__fp_cmp>:
     b4e:	99 0f       	add	r25, r25
     b50:	00 08       	sbc	r0, r0
     b52:	55 0f       	add	r21, r21
     b54:	aa 0b       	sbc	r26, r26
     b56:	e0 e8       	ldi	r30, 0x80	; 128
     b58:	fe ef       	ldi	r31, 0xFE	; 254
     b5a:	16 16       	cp	r1, r22
     b5c:	17 06       	cpc	r1, r23
     b5e:	e8 07       	cpc	r30, r24
     b60:	f9 07       	cpc	r31, r25
     b62:	c0 f0       	brcs	.+48     	; 0xb94 <__fp_cmp+0x46>
     b64:	12 16       	cp	r1, r18
     b66:	13 06       	cpc	r1, r19
     b68:	e4 07       	cpc	r30, r20
     b6a:	f5 07       	cpc	r31, r21
     b6c:	98 f0       	brcs	.+38     	; 0xb94 <__fp_cmp+0x46>
     b6e:	62 1b       	sub	r22, r18
     b70:	73 0b       	sbc	r23, r19
     b72:	84 0b       	sbc	r24, r20
     b74:	95 0b       	sbc	r25, r21
     b76:	39 f4       	brne	.+14     	; 0xb86 <__fp_cmp+0x38>
     b78:	0a 26       	eor	r0, r26
     b7a:	61 f0       	breq	.+24     	; 0xb94 <__fp_cmp+0x46>
     b7c:	23 2b       	or	r18, r19
     b7e:	24 2b       	or	r18, r20
     b80:	25 2b       	or	r18, r21
     b82:	21 f4       	brne	.+8      	; 0xb8c <__fp_cmp+0x3e>
     b84:	08 95       	ret
     b86:	0a 26       	eor	r0, r26
     b88:	09 f4       	brne	.+2      	; 0xb8c <__fp_cmp+0x3e>
     b8a:	a1 40       	sbci	r26, 0x01	; 1
     b8c:	a6 95       	lsr	r26
     b8e:	8f ef       	ldi	r24, 0xFF	; 255
     b90:	81 1d       	adc	r24, r1
     b92:	81 1d       	adc	r24, r1
     b94:	08 95       	ret

00000b96 <__fp_inf>:
     b96:	97 f9       	bld	r25, 7
     b98:	9f 67       	ori	r25, 0x7F	; 127
     b9a:	80 e8       	ldi	r24, 0x80	; 128
     b9c:	70 e0       	ldi	r23, 0x00	; 0
     b9e:	60 e0       	ldi	r22, 0x00	; 0
     ba0:	08 95       	ret

00000ba2 <__fp_nan>:
     ba2:	9f ef       	ldi	r25, 0xFF	; 255
     ba4:	80 ec       	ldi	r24, 0xC0	; 192
     ba6:	08 95       	ret

00000ba8 <__fp_pscA>:
     ba8:	00 24       	eor	r0, r0
     baa:	0a 94       	dec	r0
     bac:	16 16       	cp	r1, r22
     bae:	17 06       	cpc	r1, r23
     bb0:	18 06       	cpc	r1, r24
     bb2:	09 06       	cpc	r0, r25
     bb4:	08 95       	ret

00000bb6 <__fp_pscB>:
     bb6:	00 24       	eor	r0, r0
     bb8:	0a 94       	dec	r0
     bba:	12 16       	cp	r1, r18
     bbc:	13 06       	cpc	r1, r19
     bbe:	14 06       	cpc	r1, r20
     bc0:	05 06       	cpc	r0, r21
     bc2:	08 95       	ret

00000bc4 <__fp_round>:
     bc4:	09 2e       	mov	r0, r25
     bc6:	03 94       	inc	r0
     bc8:	00 0c       	add	r0, r0
     bca:	11 f4       	brne	.+4      	; 0xbd0 <__fp_round+0xc>
     bcc:	88 23       	and	r24, r24
     bce:	52 f0       	brmi	.+20     	; 0xbe4 <__fp_round+0x20>
     bd0:	bb 0f       	add	r27, r27
     bd2:	40 f4       	brcc	.+16     	; 0xbe4 <__fp_round+0x20>
     bd4:	bf 2b       	or	r27, r31
     bd6:	11 f4       	brne	.+4      	; 0xbdc <__fp_round+0x18>
     bd8:	60 ff       	sbrs	r22, 0
     bda:	04 c0       	rjmp	.+8      	; 0xbe4 <__fp_round+0x20>
     bdc:	6f 5f       	subi	r22, 0xFF	; 255
     bde:	7f 4f       	sbci	r23, 0xFF	; 255
     be0:	8f 4f       	sbci	r24, 0xFF	; 255
     be2:	9f 4f       	sbci	r25, 0xFF	; 255
     be4:	08 95       	ret

00000be6 <__fp_split3>:
     be6:	57 fd       	sbrc	r21, 7
     be8:	90 58       	subi	r25, 0x80	; 128
     bea:	44 0f       	add	r20, r20
     bec:	55 1f       	adc	r21, r21
     bee:	59 f0       	breq	.+22     	; 0xc06 <__fp_splitA+0x10>
     bf0:	5f 3f       	cpi	r21, 0xFF	; 255
     bf2:	71 f0       	breq	.+28     	; 0xc10 <__fp_splitA+0x1a>
     bf4:	47 95       	ror	r20

00000bf6 <__fp_splitA>:
     bf6:	88 0f       	add	r24, r24
     bf8:	97 fb       	bst	r25, 7
     bfa:	99 1f       	adc	r25, r25
     bfc:	61 f0       	breq	.+24     	; 0xc16 <__fp_splitA+0x20>
     bfe:	9f 3f       	cpi	r25, 0xFF	; 255
     c00:	79 f0       	breq	.+30     	; 0xc20 <__fp_splitA+0x2a>
     c02:	87 95       	ror	r24
     c04:	08 95       	ret
     c06:	12 16       	cp	r1, r18
     c08:	13 06       	cpc	r1, r19
     c0a:	14 06       	cpc	r1, r20
     c0c:	55 1f       	adc	r21, r21
     c0e:	f2 cf       	rjmp	.-28     	; 0xbf4 <__fp_split3+0xe>
     c10:	46 95       	lsr	r20
     c12:	f1 df       	rcall	.-30     	; 0xbf6 <__fp_splitA>
     c14:	08 c0       	rjmp	.+16     	; 0xc26 <__fp_splitA+0x30>
     c16:	16 16       	cp	r1, r22
     c18:	17 06       	cpc	r1, r23
     c1a:	18 06       	cpc	r1, r24
     c1c:	99 1f       	adc	r25, r25
     c1e:	f1 cf       	rjmp	.-30     	; 0xc02 <__fp_splitA+0xc>
     c20:	86 95       	lsr	r24
     c22:	71 05       	cpc	r23, r1
     c24:	61 05       	cpc	r22, r1
     c26:	08 94       	sec
     c28:	08 95       	ret

00000c2a <__fp_zero>:
     c2a:	e8 94       	clt

00000c2c <__fp_szero>:
     c2c:	bb 27       	eor	r27, r27
     c2e:	66 27       	eor	r22, r22
     c30:	77 27       	eor	r23, r23
     c32:	cb 01       	movw	r24, r22
     c34:	97 f9       	bld	r25, 7
     c36:	08 95       	ret

00000c38 <__mulsf3>:
     c38:	0e 94 2f 06 	call	0xc5e	; 0xc5e <__mulsf3x>
     c3c:	0c 94 e2 05 	jmp	0xbc4	; 0xbc4 <__fp_round>
     c40:	0e 94 d4 05 	call	0xba8	; 0xba8 <__fp_pscA>
     c44:	38 f0       	brcs	.+14     	; 0xc54 <__mulsf3+0x1c>
     c46:	0e 94 db 05 	call	0xbb6	; 0xbb6 <__fp_pscB>
     c4a:	20 f0       	brcs	.+8      	; 0xc54 <__mulsf3+0x1c>
     c4c:	95 23       	and	r25, r21
     c4e:	11 f0       	breq	.+4      	; 0xc54 <__mulsf3+0x1c>
     c50:	0c 94 cb 05 	jmp	0xb96	; 0xb96 <__fp_inf>
     c54:	0c 94 d1 05 	jmp	0xba2	; 0xba2 <__fp_nan>
     c58:	11 24       	eor	r1, r1
     c5a:	0c 94 16 06 	jmp	0xc2c	; 0xc2c <__fp_szero>

00000c5e <__mulsf3x>:
     c5e:	0e 94 f3 05 	call	0xbe6	; 0xbe6 <__fp_split3>
     c62:	70 f3       	brcs	.-36     	; 0xc40 <__mulsf3+0x8>

00000c64 <__mulsf3_pse>:
     c64:	95 9f       	mul	r25, r21
     c66:	c1 f3       	breq	.-16     	; 0xc58 <__mulsf3+0x20>
     c68:	95 0f       	add	r25, r21
     c6a:	50 e0       	ldi	r21, 0x00	; 0
     c6c:	55 1f       	adc	r21, r21
     c6e:	62 9f       	mul	r22, r18
     c70:	f0 01       	movw	r30, r0
     c72:	72 9f       	mul	r23, r18
     c74:	bb 27       	eor	r27, r27
     c76:	f0 0d       	add	r31, r0
     c78:	b1 1d       	adc	r27, r1
     c7a:	63 9f       	mul	r22, r19
     c7c:	aa 27       	eor	r26, r26
     c7e:	f0 0d       	add	r31, r0
     c80:	b1 1d       	adc	r27, r1
     c82:	aa 1f       	adc	r26, r26
     c84:	64 9f       	mul	r22, r20
     c86:	66 27       	eor	r22, r22
     c88:	b0 0d       	add	r27, r0
     c8a:	a1 1d       	adc	r26, r1
     c8c:	66 1f       	adc	r22, r22
     c8e:	82 9f       	mul	r24, r18
     c90:	22 27       	eor	r18, r18
     c92:	b0 0d       	add	r27, r0
     c94:	a1 1d       	adc	r26, r1
     c96:	62 1f       	adc	r22, r18
     c98:	73 9f       	mul	r23, r19
     c9a:	b0 0d       	add	r27, r0
     c9c:	a1 1d       	adc	r26, r1
     c9e:	62 1f       	adc	r22, r18
     ca0:	83 9f       	mul	r24, r19
     ca2:	a0 0d       	add	r26, r0
     ca4:	61 1d       	adc	r22, r1
     ca6:	22 1f       	adc	r18, r18
     ca8:	74 9f       	mul	r23, r20
     caa:	33 27       	eor	r19, r19
     cac:	a0 0d       	add	r26, r0
     cae:	61 1d       	adc	r22, r1
     cb0:	23 1f       	adc	r18, r19
     cb2:	84 9f       	mul	r24, r20
     cb4:	60 0d       	add	r22, r0
     cb6:	21 1d       	adc	r18, r1
     cb8:	82 2f       	mov	r24, r18
     cba:	76 2f       	mov	r23, r22
     cbc:	6a 2f       	mov	r22, r26
     cbe:	11 24       	eor	r1, r1
     cc0:	9f 57       	subi	r25, 0x7F	; 127
     cc2:	50 40       	sbci	r21, 0x00	; 0
     cc4:	9a f0       	brmi	.+38     	; 0xcec <__mulsf3_pse+0x88>
     cc6:	f1 f0       	breq	.+60     	; 0xd04 <__mulsf3_pse+0xa0>
     cc8:	88 23       	and	r24, r24
     cca:	4a f0       	brmi	.+18     	; 0xcde <__mulsf3_pse+0x7a>
     ccc:	ee 0f       	add	r30, r30
     cce:	ff 1f       	adc	r31, r31
     cd0:	bb 1f       	adc	r27, r27
     cd2:	66 1f       	adc	r22, r22
     cd4:	77 1f       	adc	r23, r23
     cd6:	88 1f       	adc	r24, r24
     cd8:	91 50       	subi	r25, 0x01	; 1
     cda:	50 40       	sbci	r21, 0x00	; 0
     cdc:	a9 f7       	brne	.-22     	; 0xcc8 <__mulsf3_pse+0x64>
     cde:	9e 3f       	cpi	r25, 0xFE	; 254
     ce0:	51 05       	cpc	r21, r1
     ce2:	80 f0       	brcs	.+32     	; 0xd04 <__mulsf3_pse+0xa0>
     ce4:	0c 94 cb 05 	jmp	0xb96	; 0xb96 <__fp_inf>
     ce8:	0c 94 16 06 	jmp	0xc2c	; 0xc2c <__fp_szero>
     cec:	5f 3f       	cpi	r21, 0xFF	; 255
     cee:	e4 f3       	brlt	.-8      	; 0xce8 <__mulsf3_pse+0x84>
     cf0:	98 3e       	cpi	r25, 0xE8	; 232
     cf2:	d4 f3       	brlt	.-12     	; 0xce8 <__mulsf3_pse+0x84>
     cf4:	86 95       	lsr	r24
     cf6:	77 95       	ror	r23
     cf8:	67 95       	ror	r22
     cfa:	b7 95       	ror	r27
     cfc:	f7 95       	ror	r31
     cfe:	e7 95       	ror	r30
     d00:	9f 5f       	subi	r25, 0xFF	; 255
     d02:	c1 f7       	brne	.-16     	; 0xcf4 <__mulsf3_pse+0x90>
     d04:	fe 2b       	or	r31, r30
     d06:	88 0f       	add	r24, r24
     d08:	91 1d       	adc	r25, r1
     d0a:	96 95       	lsr	r25
     d0c:	87 95       	ror	r24
     d0e:	97 f9       	bld	r25, 7
     d10:	08 95       	ret

00000d12 <pow>:
     d12:	fa 01       	movw	r30, r20
     d14:	ee 0f       	add	r30, r30
     d16:	ff 1f       	adc	r31, r31
     d18:	30 96       	adiw	r30, 0x00	; 0
     d1a:	21 05       	cpc	r18, r1
     d1c:	31 05       	cpc	r19, r1
     d1e:	a1 f1       	breq	.+104    	; 0xd88 <pow+0x76>
     d20:	61 15       	cp	r22, r1
     d22:	71 05       	cpc	r23, r1
     d24:	61 f4       	brne	.+24     	; 0xd3e <pow+0x2c>
     d26:	80 38       	cpi	r24, 0x80	; 128
     d28:	bf e3       	ldi	r27, 0x3F	; 63
     d2a:	9b 07       	cpc	r25, r27
     d2c:	49 f1       	breq	.+82     	; 0xd80 <pow+0x6e>
     d2e:	68 94       	set
     d30:	90 38       	cpi	r25, 0x80	; 128
     d32:	81 05       	cpc	r24, r1
     d34:	61 f0       	breq	.+24     	; 0xd4e <pow+0x3c>
     d36:	80 38       	cpi	r24, 0x80	; 128
     d38:	bf ef       	ldi	r27, 0xFF	; 255
     d3a:	9b 07       	cpc	r25, r27
     d3c:	41 f0       	breq	.+16     	; 0xd4e <pow+0x3c>
     d3e:	99 23       	and	r25, r25
     d40:	4a f5       	brpl	.+82     	; 0xd94 <pow+0x82>
     d42:	ff 3f       	cpi	r31, 0xFF	; 255
     d44:	e1 05       	cpc	r30, r1
     d46:	31 05       	cpc	r19, r1
     d48:	21 05       	cpc	r18, r1
     d4a:	19 f1       	breq	.+70     	; 0xd92 <pow+0x80>
     d4c:	e8 94       	clt
     d4e:	08 94       	sec
     d50:	e7 95       	ror	r30
     d52:	d9 01       	movw	r26, r18
     d54:	aa 23       	and	r26, r26
     d56:	29 f4       	brne	.+10     	; 0xd62 <pow+0x50>
     d58:	ab 2f       	mov	r26, r27
     d5a:	be 2f       	mov	r27, r30
     d5c:	f8 5f       	subi	r31, 0xF8	; 248
     d5e:	d0 f3       	brcs	.-12     	; 0xd54 <pow+0x42>
     d60:	10 c0       	rjmp	.+32     	; 0xd82 <pow+0x70>
     d62:	ff 5f       	subi	r31, 0xFF	; 255
     d64:	70 f4       	brcc	.+28     	; 0xd82 <pow+0x70>
     d66:	a6 95       	lsr	r26
     d68:	e0 f7       	brcc	.-8      	; 0xd62 <pow+0x50>
     d6a:	f7 39       	cpi	r31, 0x97	; 151
     d6c:	50 f0       	brcs	.+20     	; 0xd82 <pow+0x70>
     d6e:	19 f0       	breq	.+6      	; 0xd76 <pow+0x64>
     d70:	ff 3a       	cpi	r31, 0xAF	; 175
     d72:	38 f4       	brcc	.+14     	; 0xd82 <pow+0x70>
     d74:	9f 77       	andi	r25, 0x7F	; 127
     d76:	9f 93       	push	r25
     d78:	0d d0       	rcall	.+26     	; 0xd94 <pow+0x82>
     d7a:	0f 90       	pop	r0
     d7c:	07 fc       	sbrc	r0, 7
     d7e:	90 58       	subi	r25, 0x80	; 128
     d80:	08 95       	ret
     d82:	46 f0       	brts	.+16     	; 0xd94 <pow+0x82>
     d84:	0c 94 d1 05 	jmp	0xba2	; 0xba2 <__fp_nan>
     d88:	60 e0       	ldi	r22, 0x00	; 0
     d8a:	70 e0       	ldi	r23, 0x00	; 0
     d8c:	80 e8       	ldi	r24, 0x80	; 128
     d8e:	9f e3       	ldi	r25, 0x3F	; 63
     d90:	08 95       	ret
     d92:	4f e7       	ldi	r20, 0x7F	; 127
     d94:	9f 77       	andi	r25, 0x7F	; 127
     d96:	5f 93       	push	r21
     d98:	4f 93       	push	r20
     d9a:	3f 93       	push	r19
     d9c:	2f 93       	push	r18
     d9e:	0e 94 84 07 	call	0xf08	; 0xf08 <log>
     da2:	2f 91       	pop	r18
     da4:	3f 91       	pop	r19
     da6:	4f 91       	pop	r20
     da8:	5f 91       	pop	r21
     daa:	0e 94 1c 06 	call	0xc38	; 0xc38 <__mulsf3>
     dae:	0c 94 e1 06 	jmp	0xdc2	; 0xdc2 <exp>
     db2:	29 f4       	brne	.+10     	; 0xdbe <pow+0xac>
     db4:	16 f0       	brts	.+4      	; 0xdba <pow+0xa8>
     db6:	0c 94 cb 05 	jmp	0xb96	; 0xb96 <__fp_inf>
     dba:	0c 94 15 06 	jmp	0xc2a	; 0xc2a <__fp_zero>
     dbe:	0c 94 d1 05 	jmp	0xba2	; 0xba2 <__fp_nan>

00000dc2 <exp>:
     dc2:	0e 94 fb 05 	call	0xbf6	; 0xbf6 <__fp_splitA>
     dc6:	a8 f3       	brcs	.-22     	; 0xdb2 <pow+0xa0>
     dc8:	96 38       	cpi	r25, 0x86	; 134
     dca:	a0 f7       	brcc	.-24     	; 0xdb4 <pow+0xa2>
     dcc:	07 f8       	bld	r0, 7
     dce:	0f 92       	push	r0
     dd0:	e8 94       	clt
     dd2:	2b e3       	ldi	r18, 0x3B	; 59
     dd4:	3a ea       	ldi	r19, 0xAA	; 170
     dd6:	48 eb       	ldi	r20, 0xB8	; 184
     dd8:	5f e7       	ldi	r21, 0x7F	; 127
     dda:	0e 94 32 06 	call	0xc64	; 0xc64 <__mulsf3_pse>
     dde:	0f 92       	push	r0
     de0:	0f 92       	push	r0
     de2:	0f 92       	push	r0
     de4:	4d b7       	in	r20, 0x3d	; 61
     de6:	5e b7       	in	r21, 0x3e	; 62
     de8:	0f 92       	push	r0
     dea:	0e 94 cc 07 	call	0xf98	; 0xf98 <modf>
     dee:	e8 e7       	ldi	r30, 0x78	; 120
     df0:	f0 e0       	ldi	r31, 0x00	; 0
     df2:	0e 94 13 07 	call	0xe26	; 0xe26 <__fp_powser>
     df6:	4f 91       	pop	r20
     df8:	5f 91       	pop	r21
     dfa:	ef 91       	pop	r30
     dfc:	ff 91       	pop	r31
     dfe:	e5 95       	asr	r30
     e00:	ee 1f       	adc	r30, r30
     e02:	ff 1f       	adc	r31, r31
     e04:	49 f0       	breq	.+18     	; 0xe18 <exp+0x56>
     e06:	fe 57       	subi	r31, 0x7E	; 126
     e08:	e0 68       	ori	r30, 0x80	; 128
     e0a:	44 27       	eor	r20, r20
     e0c:	ee 0f       	add	r30, r30
     e0e:	44 1f       	adc	r20, r20
     e10:	fa 95       	dec	r31
     e12:	e1 f7       	brne	.-8      	; 0xe0c <exp+0x4a>
     e14:	41 95       	neg	r20
     e16:	55 0b       	sbc	r21, r21
     e18:	0e 94 46 07 	call	0xe8c	; 0xe8c <ldexp>
     e1c:	0f 90       	pop	r0
     e1e:	07 fe       	sbrs	r0, 7
     e20:	0c 94 3a 07 	jmp	0xe74	; 0xe74 <inverse>
     e24:	08 95       	ret

00000e26 <__fp_powser>:
     e26:	df 93       	push	r29
     e28:	cf 93       	push	r28
     e2a:	1f 93       	push	r17
     e2c:	0f 93       	push	r16
     e2e:	ff 92       	push	r15
     e30:	ef 92       	push	r14
     e32:	df 92       	push	r13
     e34:	7b 01       	movw	r14, r22
     e36:	8c 01       	movw	r16, r24
     e38:	68 94       	set
     e3a:	06 c0       	rjmp	.+12     	; 0xe48 <__fp_powser+0x22>
     e3c:	da 2e       	mov	r13, r26
     e3e:	ef 01       	movw	r28, r30
     e40:	0e 94 2f 06 	call	0xc5e	; 0xc5e <__mulsf3x>
     e44:	fe 01       	movw	r30, r28
     e46:	e8 94       	clt
     e48:	a5 91       	lpm	r26, Z+
     e4a:	25 91       	lpm	r18, Z+
     e4c:	35 91       	lpm	r19, Z+
     e4e:	45 91       	lpm	r20, Z+
     e50:	55 91       	lpm	r21, Z+
     e52:	a6 f3       	brts	.-24     	; 0xe3c <__fp_powser+0x16>
     e54:	ef 01       	movw	r28, r30
     e56:	0e 94 6f 04 	call	0x8de	; 0x8de <__addsf3x>
     e5a:	fe 01       	movw	r30, r28
     e5c:	97 01       	movw	r18, r14
     e5e:	a8 01       	movw	r20, r16
     e60:	da 94       	dec	r13
     e62:	69 f7       	brne	.-38     	; 0xe3e <__fp_powser+0x18>
     e64:	df 90       	pop	r13
     e66:	ef 90       	pop	r14
     e68:	ff 90       	pop	r15
     e6a:	0f 91       	pop	r16
     e6c:	1f 91       	pop	r17
     e6e:	cf 91       	pop	r28
     e70:	df 91       	pop	r29
     e72:	08 95       	ret

00000e74 <inverse>:
     e74:	9b 01       	movw	r18, r22
     e76:	ac 01       	movw	r20, r24
     e78:	60 e0       	ldi	r22, 0x00	; 0
     e7a:	70 e0       	ldi	r23, 0x00	; 0
     e7c:	80 e8       	ldi	r24, 0x80	; 128
     e7e:	9f e3       	ldi	r25, 0x3F	; 63
     e80:	0c 94 c9 04 	jmp	0x992	; 0x992 <__divsf3>
     e84:	0c 94 cb 05 	jmp	0xb96	; 0xb96 <__fp_inf>
     e88:	0c 94 00 08 	jmp	0x1000	; 0x1000 <__fp_mpack>

00000e8c <ldexp>:
     e8c:	0e 94 fb 05 	call	0xbf6	; 0xbf6 <__fp_splitA>
     e90:	d8 f3       	brcs	.-10     	; 0xe88 <inverse+0x14>
     e92:	99 23       	and	r25, r25
     e94:	c9 f3       	breq	.-14     	; 0xe88 <inverse+0x14>
     e96:	94 0f       	add	r25, r20
     e98:	51 1d       	adc	r21, r1
     e9a:	a3 f3       	brvs	.-24     	; 0xe84 <inverse+0x10>
     e9c:	91 50       	subi	r25, 0x01	; 1
     e9e:	50 40       	sbci	r21, 0x00	; 0
     ea0:	94 f0       	brlt	.+36     	; 0xec6 <ldexp+0x3a>
     ea2:	59 f0       	breq	.+22     	; 0xeba <ldexp+0x2e>
     ea4:	88 23       	and	r24, r24
     ea6:	32 f0       	brmi	.+12     	; 0xeb4 <ldexp+0x28>
     ea8:	66 0f       	add	r22, r22
     eaa:	77 1f       	adc	r23, r23
     eac:	88 1f       	adc	r24, r24
     eae:	91 50       	subi	r25, 0x01	; 1
     eb0:	50 40       	sbci	r21, 0x00	; 0
     eb2:	c1 f7       	brne	.-16     	; 0xea4 <ldexp+0x18>
     eb4:	9e 3f       	cpi	r25, 0xFE	; 254
     eb6:	51 05       	cpc	r21, r1
     eb8:	2c f7       	brge	.-54     	; 0xe84 <inverse+0x10>
     eba:	88 0f       	add	r24, r24
     ebc:	91 1d       	adc	r25, r1
     ebe:	96 95       	lsr	r25
     ec0:	87 95       	ror	r24
     ec2:	97 f9       	bld	r25, 7
     ec4:	08 95       	ret
     ec6:	5f 3f       	cpi	r21, 0xFF	; 255
     ec8:	ac f0       	brlt	.+42     	; 0xef4 <ldexp+0x68>
     eca:	98 3e       	cpi	r25, 0xE8	; 232
     ecc:	9c f0       	brlt	.+38     	; 0xef4 <ldexp+0x68>
     ece:	bb 27       	eor	r27, r27
     ed0:	86 95       	lsr	r24
     ed2:	77 95       	ror	r23
     ed4:	67 95       	ror	r22
     ed6:	b7 95       	ror	r27
     ed8:	08 f4       	brcc	.+2      	; 0xedc <ldexp+0x50>
     eda:	b1 60       	ori	r27, 0x01	; 1
     edc:	93 95       	inc	r25
     ede:	c1 f7       	brne	.-16     	; 0xed0 <ldexp+0x44>
     ee0:	bb 0f       	add	r27, r27
     ee2:	58 f7       	brcc	.-42     	; 0xeba <ldexp+0x2e>
     ee4:	11 f4       	brne	.+4      	; 0xeea <ldexp+0x5e>
     ee6:	60 ff       	sbrs	r22, 0
     ee8:	e8 cf       	rjmp	.-48     	; 0xeba <ldexp+0x2e>
     eea:	6f 5f       	subi	r22, 0xFF	; 255
     eec:	7f 4f       	sbci	r23, 0xFF	; 255
     eee:	8f 4f       	sbci	r24, 0xFF	; 255
     ef0:	9f 4f       	sbci	r25, 0xFF	; 255
     ef2:	e3 cf       	rjmp	.-58     	; 0xeba <ldexp+0x2e>
     ef4:	0c 94 16 06 	jmp	0xc2c	; 0xc2c <__fp_szero>
     ef8:	16 f0       	brts	.+4      	; 0xefe <ldexp+0x72>
     efa:	0c 94 00 08 	jmp	0x1000	; 0x1000 <__fp_mpack>
     efe:	0c 94 d1 05 	jmp	0xba2	; 0xba2 <__fp_nan>
     f02:	68 94       	set
     f04:	0c 94 cb 05 	jmp	0xb96	; 0xb96 <__fp_inf>

00000f08 <log>:
     f08:	0e 94 fb 05 	call	0xbf6	; 0xbf6 <__fp_splitA>
     f0c:	a8 f3       	brcs	.-22     	; 0xef8 <ldexp+0x6c>
     f0e:	99 23       	and	r25, r25
     f10:	c1 f3       	breq	.-16     	; 0xf02 <ldexp+0x76>
     f12:	ae f3       	brts	.-22     	; 0xefe <ldexp+0x72>
     f14:	df 93       	push	r29
     f16:	cf 93       	push	r28
     f18:	1f 93       	push	r17
     f1a:	0f 93       	push	r16
     f1c:	ff 92       	push	r15
     f1e:	c9 2f       	mov	r28, r25
     f20:	dd 27       	eor	r29, r29
     f22:	88 23       	and	r24, r24
     f24:	2a f0       	brmi	.+10     	; 0xf30 <log+0x28>
     f26:	21 97       	sbiw	r28, 0x01	; 1
     f28:	66 0f       	add	r22, r22
     f2a:	77 1f       	adc	r23, r23
     f2c:	88 1f       	adc	r24, r24
     f2e:	da f7       	brpl	.-10     	; 0xf26 <log+0x1e>
     f30:	20 e0       	ldi	r18, 0x00	; 0
     f32:	30 e0       	ldi	r19, 0x00	; 0
     f34:	40 e8       	ldi	r20, 0x80	; 128
     f36:	5f eb       	ldi	r21, 0xBF	; 191
     f38:	9f e3       	ldi	r25, 0x3F	; 63
     f3a:	88 39       	cpi	r24, 0x98	; 152
     f3c:	20 f0       	brcs	.+8      	; 0xf46 <log+0x3e>
     f3e:	80 3e       	cpi	r24, 0xE0	; 224
     f40:	38 f0       	brcs	.+14     	; 0xf50 <log+0x48>
     f42:	21 96       	adiw	r28, 0x01	; 1
     f44:	8f 77       	andi	r24, 0x7F	; 127
     f46:	0e 94 58 04 	call	0x8b0	; 0x8b0 <__addsf3>
     f4a:	e0 ea       	ldi	r30, 0xA0	; 160
     f4c:	f0 e0       	ldi	r31, 0x00	; 0
     f4e:	04 c0       	rjmp	.+8      	; 0xf58 <log+0x50>
     f50:	0e 94 58 04 	call	0x8b0	; 0x8b0 <__addsf3>
     f54:	ed ec       	ldi	r30, 0xCD	; 205
     f56:	f0 e0       	ldi	r31, 0x00	; 0
     f58:	0e 94 13 07 	call	0xe26	; 0xe26 <__fp_powser>
     f5c:	8b 01       	movw	r16, r22
     f5e:	be 01       	movw	r22, r28
     f60:	ec 01       	movw	r28, r24
     f62:	fb 2e       	mov	r15, r27
     f64:	6f 57       	subi	r22, 0x7F	; 127
     f66:	71 09       	sbc	r23, r1
     f68:	75 95       	asr	r23
     f6a:	77 1f       	adc	r23, r23
     f6c:	88 0b       	sbc	r24, r24
     f6e:	99 0b       	sbc	r25, r25
     f70:	0e 94 6c 05 	call	0xad8	; 0xad8 <__floatsisf>
     f74:	28 e1       	ldi	r18, 0x18	; 24
     f76:	32 e7       	ldi	r19, 0x72	; 114
     f78:	41 e3       	ldi	r20, 0x31	; 49
     f7a:	5f e3       	ldi	r21, 0x3F	; 63
     f7c:	0e 94 2f 06 	call	0xc5e	; 0xc5e <__mulsf3x>
     f80:	af 2d       	mov	r26, r15
     f82:	98 01       	movw	r18, r16
     f84:	ae 01       	movw	r20, r28
     f86:	ff 90       	pop	r15
     f88:	0f 91       	pop	r16
     f8a:	1f 91       	pop	r17
     f8c:	cf 91       	pop	r28
     f8e:	df 91       	pop	r29
     f90:	0e 94 6f 04 	call	0x8de	; 0x8de <__addsf3x>
     f94:	0c 94 e2 05 	jmp	0xbc4	; 0xbc4 <__fp_round>

00000f98 <modf>:
     f98:	fa 01       	movw	r30, r20
     f9a:	dc 01       	movw	r26, r24
     f9c:	aa 0f       	add	r26, r26
     f9e:	bb 1f       	adc	r27, r27
     fa0:	9b 01       	movw	r18, r22
     fa2:	ac 01       	movw	r20, r24
     fa4:	bf 57       	subi	r27, 0x7F	; 127
     fa6:	28 f4       	brcc	.+10     	; 0xfb2 <modf+0x1a>
     fa8:	22 27       	eor	r18, r18
     faa:	33 27       	eor	r19, r19
     fac:	44 27       	eor	r20, r20
     fae:	50 78       	andi	r21, 0x80	; 128
     fb0:	20 c0       	rjmp	.+64     	; 0xff2 <modf+0x5a>
     fb2:	b7 51       	subi	r27, 0x17	; 23
     fb4:	90 f4       	brcc	.+36     	; 0xfda <modf+0x42>
     fb6:	ab 2f       	mov	r26, r27
     fb8:	00 24       	eor	r0, r0
     fba:	46 95       	lsr	r20
     fbc:	37 95       	ror	r19
     fbe:	27 95       	ror	r18
     fc0:	01 1c       	adc	r0, r1
     fc2:	a3 95       	inc	r26
     fc4:	d2 f3       	brmi	.-12     	; 0xfba <modf+0x22>
     fc6:	00 20       	and	r0, r0
     fc8:	71 f0       	breq	.+28     	; 0xfe6 <modf+0x4e>
     fca:	22 0f       	add	r18, r18
     fcc:	33 1f       	adc	r19, r19
     fce:	44 1f       	adc	r20, r20
     fd0:	b3 95       	inc	r27
     fd2:	da f3       	brmi	.-10     	; 0xfca <modf+0x32>
     fd4:	0e d0       	rcall	.+28     	; 0xff2 <modf+0x5a>
     fd6:	0c 94 57 04 	jmp	0x8ae	; 0x8ae <__subsf3>
     fda:	61 30       	cpi	r22, 0x01	; 1
     fdc:	71 05       	cpc	r23, r1
     fde:	a0 e8       	ldi	r26, 0x80	; 128
     fe0:	8a 07       	cpc	r24, r26
     fe2:	b9 46       	sbci	r27, 0x69	; 105
     fe4:	30 f4       	brcc	.+12     	; 0xff2 <modf+0x5a>
     fe6:	9b 01       	movw	r18, r22
     fe8:	ac 01       	movw	r20, r24
     fea:	66 27       	eor	r22, r22
     fec:	77 27       	eor	r23, r23
     fee:	88 27       	eor	r24, r24
     ff0:	90 78       	andi	r25, 0x80	; 128
     ff2:	30 96       	adiw	r30, 0x00	; 0
     ff4:	21 f0       	breq	.+8      	; 0xffe <modf+0x66>
     ff6:	20 83       	st	Z, r18
     ff8:	31 83       	std	Z+1, r19	; 0x01
     ffa:	42 83       	std	Z+2, r20	; 0x02
     ffc:	53 83       	std	Z+3, r21	; 0x03
     ffe:	08 95       	ret

00001000 <__fp_mpack>:
    1000:	9f 3f       	cpi	r25, 0xFF	; 255
    1002:	31 f0       	breq	.+12     	; 0x1010 <__fp_mpack_finite+0xc>

00001004 <__fp_mpack_finite>:
    1004:	91 50       	subi	r25, 0x01	; 1
    1006:	20 f4       	brcc	.+8      	; 0x1010 <__fp_mpack_finite+0xc>
    1008:	87 95       	ror	r24
    100a:	77 95       	ror	r23
    100c:	67 95       	ror	r22
    100e:	b7 95       	ror	r27
    1010:	88 0f       	add	r24, r24
    1012:	91 1d       	adc	r25, r1
    1014:	96 95       	lsr	r25
    1016:	87 95       	ror	r24
    1018:	97 f9       	bld	r25, 7
    101a:	08 95       	ret

0000101c <__tablejump2__>:
    101c:	ee 0f       	add	r30, r30
    101e:	ff 1f       	adc	r31, r31
    1020:	05 90       	lpm	r0, Z+
    1022:	f4 91       	lpm	r31, Z
    1024:	e0 2d       	mov	r30, r0
    1026:	09 94       	ijmp

00001028 <__adddi3_s8>:
    1028:	00 24       	eor	r0, r0
    102a:	a7 fd       	sbrc	r26, 7
    102c:	00 94       	com	r0
    102e:	2a 0f       	add	r18, r26
    1030:	30 1d       	adc	r19, r0
    1032:	40 1d       	adc	r20, r0
    1034:	50 1d       	adc	r21, r0
    1036:	60 1d       	adc	r22, r0
    1038:	70 1d       	adc	r23, r0
    103a:	80 1d       	adc	r24, r0
    103c:	90 1d       	adc	r25, r0
    103e:	08 95       	ret

00001040 <__cmpdi2_s8>:
    1040:	00 24       	eor	r0, r0
    1042:	a7 fd       	sbrc	r26, 7
    1044:	00 94       	com	r0
    1046:	2a 17       	cp	r18, r26
    1048:	30 05       	cpc	r19, r0
    104a:	40 05       	cpc	r20, r0
    104c:	50 05       	cpc	r21, r0
    104e:	60 05       	cpc	r22, r0
    1050:	70 05       	cpc	r23, r0
    1052:	80 05       	cpc	r24, r0
    1054:	90 05       	cpc	r25, r0
    1056:	08 95       	ret

00001058 <_exit>:
    1058:	f8 94       	cli

0000105a <__stop_program>:
    105a:	ff cf       	rjmp	.-2      	; 0x105a <__stop_program>
