
ElecHeatsoftware.elf:     file format elf32-avr

Sections:
Idx Name          Size      VMA       LMA       File off  Algn
  0 .text         0000059a  00000000  00000000  00000074  2**1
                  CONTENTS, ALLOC, LOAD, READONLY, CODE
  1 .data         00000000  00800060  00800060  0000060e  2**0
                  CONTENTS, ALLOC, LOAD, DATA
  2 .bss          0000000f  00800060  00800060  0000060e  2**0
                  ALLOC
  3 .comment      00000030  00000000  00000000  0000060e  2**0
                  CONTENTS, READONLY
  4 .note.gnu.avr.deviceinfo 0000003c  00000000  00000000  00000640  2**2
                  CONTENTS, READONLY
  5 .debug_aranges 00000100  00000000  00000000  0000067c  2**0
                  CONTENTS, READONLY, DEBUGGING
  6 .debug_info   00000e20  00000000  00000000  0000077c  2**0
                  CONTENTS, READONLY, DEBUGGING
  7 .debug_abbrev 0000083f  00000000  00000000  0000159c  2**0
                  CONTENTS, READONLY, DEBUGGING
  8 .debug_line   00000900  00000000  00000000  00001ddb  2**0
                  CONTENTS, READONLY, DEBUGGING
  9 .debug_frame  00000234  00000000  00000000  000026dc  2**2
                  CONTENTS, READONLY, DEBUGGING
 10 .debug_str    0000059a  00000000  00000000  00002910  2**0
                  CONTENTS, READONLY, DEBUGGING
 11 .debug_loc    000003c9  00000000  00000000  00002eaa  2**0
                  CONTENTS, READONLY, DEBUGGING
 12 .debug_ranges 000000e0  00000000  00000000  00003273  2**0
                  CONTENTS, READONLY, DEBUGGING

Disassembly of section .text:

00000000 <__vectors>:
   0:	0c 94 2a 00 	jmp	0x54	; 0x54 <__ctors_end>
   4:	0c 94 3c 00 	jmp	0x78	; 0x78 <__bad_interrupt>
   8:	0c 94 3c 00 	jmp	0x78	; 0x78 <__bad_interrupt>
   c:	0c 94 3c 00 	jmp	0x78	; 0x78 <__bad_interrupt>
  10:	0c 94 3c 00 	jmp	0x78	; 0x78 <__bad_interrupt>
  14:	0c 94 3c 00 	jmp	0x78	; 0x78 <__bad_interrupt>
  18:	0c 94 3c 00 	jmp	0x78	; 0x78 <__bad_interrupt>
  1c:	0c 94 3c 00 	jmp	0x78	; 0x78 <__bad_interrupt>
  20:	0c 94 c8 00 	jmp	0x190	; 0x190 <__vector_8>
  24:	0c 94 3c 00 	jmp	0x78	; 0x78 <__bad_interrupt>
  28:	0c 94 3c 00 	jmp	0x78	; 0x78 <__bad_interrupt>
  2c:	0c 94 3c 00 	jmp	0x78	; 0x78 <__bad_interrupt>
  30:	0c 94 3c 00 	jmp	0x78	; 0x78 <__bad_interrupt>
  34:	0c 94 3c 00 	jmp	0x78	; 0x78 <__bad_interrupt>
  38:	0c 94 3c 00 	jmp	0x78	; 0x78 <__bad_interrupt>
  3c:	0c 94 3c 00 	jmp	0x78	; 0x78 <__bad_interrupt>
  40:	0c 94 3c 00 	jmp	0x78	; 0x78 <__bad_interrupt>
  44:	0c 94 3c 00 	jmp	0x78	; 0x78 <__bad_interrupt>
  48:	0c 94 3c 00 	jmp	0x78	; 0x78 <__bad_interrupt>
  4c:	0c 94 3c 00 	jmp	0x78	; 0x78 <__bad_interrupt>
  50:	0c 94 3c 00 	jmp	0x78	; 0x78 <__bad_interrupt>

00000054 <__ctors_end>:
  54:	11 24       	eor	r1, r1
  56:	1f be       	out	0x3f, r1	; 63
  58:	cf e5       	ldi	r28, 0x5F	; 95
  5a:	d4 e0       	ldi	r29, 0x04	; 4
  5c:	de bf       	out	0x3e, r29	; 62
  5e:	cd bf       	out	0x3d, r28	; 61

00000060 <__do_clear_bss>:
  60:	20 e0       	ldi	r18, 0x00	; 0
  62:	a0 e6       	ldi	r26, 0x60	; 96
  64:	b0 e0       	ldi	r27, 0x00	; 0
  66:	01 c0       	rjmp	.+2      	; 0x6a <.do_clear_bss_start>

00000068 <.do_clear_bss_loop>:
  68:	1d 92       	st	X+, r1

0000006a <.do_clear_bss_start>:
  6a:	af 36       	cpi	r26, 0x6F	; 111
  6c:	b2 07       	cpc	r27, r18
  6e:	e1 f7       	brne	.-8      	; 0x68 <.do_clear_bss_loop>
  70:	0e 94 f0 00 	call	0x1e0	; 0x1e0 <main>
  74:	0c 94 cb 02 	jmp	0x596	; 0x596 <_exit>

00000078 <__bad_interrupt>:
  78:	0c 94 00 00 	jmp	0	; 0x0 <__vectors>

0000007c <ADC_readChannel>:

}

unsigned short ADC_readChannel(unsigned char channel_num)
{
	channel_num &= 0x07; /* channel number must be from 0 --> 7 */
  7c:	87 70       	andi	r24, 0x07	; 7
	ADMUX &= 0xE0; /* clear first 5 bits in the ADMUX (channel number MUX4:0 bits) before set the required channel */
  7e:	97 b1       	in	r25, 0x07	; 7
  80:	90 7e       	andi	r25, 0xE0	; 224
  82:	97 b9       	out	0x07, r25	; 7
	ADMUX = ADMUX | channel_num; /* choose the correct channel by setting the channel number in MUX4:0 bits */
  84:	97 b1       	in	r25, 0x07	; 7
  86:	89 2b       	or	r24, r25
  88:	87 b9       	out	0x07, r24	; 7
	SET_BIT(ADCSRA,6); /* start conversion write '1' to ADSC */
  8a:	86 b1       	in	r24, 0x06	; 6
  8c:	80 64       	ori	r24, 0x40	; 64
  8e:	86 b9       	out	0x06, r24	; 6
	//ADCSRA |= (1<<ADSC);
	while(BIT_IS_CLEAR(ADCSRA,4)); /* wait for conversion to complete ADIF becomes '1' */
  90:	34 9b       	sbis	0x06, 4	; 6
  92:	fe cf       	rjmp	.-4      	; 0x90 <ADC_readChannel+0x14>
		SET_BIT(ADCSRA,4); /* clear ADIF by write '1' to it :) */
  94:	86 b1       	in	r24, 0x06	; 6
  96:	80 61       	ori	r24, 0x10	; 16
  98:	86 b9       	out	0x06, r24	; 6
	return ADC; /* return the data register */
  9a:	84 b1       	in	r24, 0x04	; 4
  9c:	95 b1       	in	r25, 0x05	; 5
	

}
  9e:	08 95       	ret

000000a0 <Avg_reading>:
{
	TCNT1 = 65380;   // for 100 ms at 16 MHz  in Bin "1111 1111 0110 0100" , in Hexa_decimal "FF64" 
	TCCR1A = 0x00;
	TCCR1B = (1<<CS10) | (1<<CS12);;  // Timer mode with 1024 pre_scaler
	TIMSK = (1 << TOIE1) ;   // Enable timer1 overflow interrupt(TOIE1)
	sei();        // Enable global interrupts by setting global interrupt enable bit in SREG
  a0:	60 91 65 00 	lds	r22, 0x0065	; 0x800065 <x>
  a4:	70 91 66 00 	lds	r23, 0x0066	; 0x800066 <x+0x1>
  a8:	80 91 67 00 	lds	r24, 0x0067	; 0x800067 <x+0x2>
  ac:	90 91 68 00 	lds	r25, 0x0068	; 0x800068 <x+0x3>
  b0:	20 91 6b 00 	lds	r18, 0x006B	; 0x80006b <sum>
  b4:	30 91 6c 00 	lds	r19, 0x006C	; 0x80006c <sum+0x1>
  b8:	40 91 6d 00 	lds	r20, 0x006D	; 0x80006d <sum+0x2>
  bc:	50 91 6e 00 	lds	r21, 0x006E	; 0x80006e <sum+0x3>
  c0:	0e 94 f2 00 	call	0x1e4	; 0x1e4 <__addsf3>
  c4:	60 93 6b 00 	sts	0x006B, r22	; 0x80006b <sum>
  c8:	70 93 6c 00 	sts	0x006C, r23	; 0x80006c <sum+0x1>
  cc:	80 93 6d 00 	sts	0x006D, r24	; 0x80006d <sum+0x2>
  d0:	90 93 6e 00 	sts	0x006E, r25	; 0x80006e <sum+0x3>
  d4:	20 91 60 00 	lds	r18, 0x0060	; 0x800060 <__DATA_REGION_ORIGIN__>
  d8:	2f 5f       	subi	r18, 0xFF	; 255
  da:	20 93 60 00 	sts	0x0060, r18	; 0x800060 <__DATA_REGION_ORIGIN__>
  de:	29 30       	cpi	r18, 0x09	; 9
  e0:	c1 f4       	brne	.+48     	; 0x112 <Avg_reading+0x72>
  e2:	24 e1       	ldi	r18, 0x14	; 20
  e4:	3e ea       	ldi	r19, 0xAE	; 174
  e6:	41 e1       	ldi	r20, 0x11	; 17
  e8:	51 e4       	ldi	r21, 0x41	; 65
  ea:	0e 94 5e 01 	call	0x2bc	; 0x2bc <__divsf3>
  ee:	60 93 61 00 	sts	0x0061, r22	; 0x800061 <average>
  f2:	70 93 62 00 	sts	0x0062, r23	; 0x800062 <average+0x1>
  f6:	80 93 63 00 	sts	0x0063, r24	; 0x800063 <average+0x2>
  fa:	90 93 64 00 	sts	0x0064, r25	; 0x800064 <average+0x3>
  fe:	10 92 60 00 	sts	0x0060, r1	; 0x800060 <__DATA_REGION_ORIGIN__>
 102:	10 92 6b 00 	sts	0x006B, r1	; 0x80006b <sum>
 106:	10 92 6c 00 	sts	0x006C, r1	; 0x80006c <sum+0x1>
 10a:	10 92 6d 00 	sts	0x006D, r1	; 0x80006d <sum+0x2>
 10e:	10 92 6e 00 	sts	0x006E, r1	; 0x80006e <sum+0x3>
 112:	08 95       	ret

00000114 <Temperature_reading>:
 114:	80 e0       	ldi	r24, 0x00	; 0
 116:	90 e0       	ldi	r25, 0x00	; 0
 118:	0e 94 3e 00 	call	0x7c	; 0x7c <ADC_readChannel>
 11c:	90 93 6a 00 	sts	0x006A, r25	; 0x80006a <volt+0x1>
 120:	80 93 69 00 	sts	0x0069, r24	; 0x800069 <volt>
 124:	60 91 69 00 	lds	r22, 0x0069	; 0x800069 <volt>
 128:	70 91 6a 00 	lds	r23, 0x006A	; 0x80006a <volt+0x1>
 12c:	cb 01       	movw	r24, r22
 12e:	88 0f       	add	r24, r24
 130:	99 1f       	adc	r25, r25
 132:	88 0f       	add	r24, r24
 134:	99 1f       	adc	r25, r25
 136:	68 0f       	add	r22, r24
 138:	79 1f       	adc	r23, r25
 13a:	80 e0       	ldi	r24, 0x00	; 0
 13c:	90 e0       	ldi	r25, 0x00	; 0
 13e:	0e 94 d0 01 	call	0x3a0	; 0x3a0 <__floatunsisf>
 142:	20 e0       	ldi	r18, 0x00	; 0
 144:	30 ec       	ldi	r19, 0xC0	; 192
 146:	4f e7       	ldi	r20, 0x7F	; 127
 148:	54 e4       	ldi	r21, 0x44	; 68
 14a:	0e 94 5e 01 	call	0x2bc	; 0x2bc <__divsf3>
 14e:	60 93 65 00 	sts	0x0065, r22	; 0x800065 <x>
 152:	70 93 66 00 	sts	0x0066, r23	; 0x800066 <x+0x1>
 156:	80 93 67 00 	sts	0x0067, r24	; 0x800067 <x+0x2>
 15a:	90 93 68 00 	sts	0x0068, r25	; 0x800068 <x+0x3>
 15e:	60 91 65 00 	lds	r22, 0x0065	; 0x800065 <x>
 162:	70 91 66 00 	lds	r23, 0x0066	; 0x800066 <x+0x1>
 166:	80 91 67 00 	lds	r24, 0x0067	; 0x800067 <x+0x2>
 16a:	90 91 68 00 	lds	r25, 0x0068	; 0x800068 <x+0x3>
 16e:	20 e0       	ldi	r18, 0x00	; 0
 170:	30 e0       	ldi	r19, 0x00	; 0
 172:	48 ec       	ldi	r20, 0xC8	; 200
 174:	52 e4       	ldi	r21, 0x42	; 66
 176:	0e 94 5e 02 	call	0x4bc	; 0x4bc <__mulsf3>
 17a:	60 93 65 00 	sts	0x0065, r22	; 0x800065 <x>
 17e:	70 93 66 00 	sts	0x0066, r23	; 0x800066 <x+0x1>
 182:	80 93 67 00 	sts	0x0067, r24	; 0x800067 <x+0x2>
 186:	90 93 68 00 	sts	0x0068, r25	; 0x800068 <x+0x3>
 18a:	0e 94 50 00 	call	0xa0	; 0xa0 <Avg_reading>
 18e:	08 95       	ret

00000190 <__vector_8>:
 190:	1f 92       	push	r1
 192:	0f 92       	push	r0
 194:	0f b6       	in	r0, 0x3f	; 63
 196:	0f 92       	push	r0
 198:	11 24       	eor	r1, r1
 19a:	2f 93       	push	r18
 19c:	3f 93       	push	r19
 19e:	4f 93       	push	r20
 1a0:	5f 93       	push	r21
 1a2:	6f 93       	push	r22
 1a4:	7f 93       	push	r23
 1a6:	8f 93       	push	r24
 1a8:	9f 93       	push	r25
 1aa:	af 93       	push	r26
 1ac:	bf 93       	push	r27
 1ae:	ef 93       	push	r30
 1b0:	ff 93       	push	r31
 1b2:	84 e6       	ldi	r24, 0x64	; 100
 1b4:	9f ef       	ldi	r25, 0xFF	; 255
 1b6:	9d bd       	out	0x2d, r25	; 45
 1b8:	8c bd       	out	0x2c, r24	; 44
 1ba:	0e 94 8a 00 	call	0x114	; 0x114 <Temperature_reading>
 1be:	ff 91       	pop	r31
 1c0:	ef 91       	pop	r30
 1c2:	bf 91       	pop	r27
 1c4:	af 91       	pop	r26
 1c6:	9f 91       	pop	r25
 1c8:	8f 91       	pop	r24
 1ca:	7f 91       	pop	r23
 1cc:	6f 91       	pop	r22
 1ce:	5f 91       	pop	r21
 1d0:	4f 91       	pop	r20
 1d2:	3f 91       	pop	r19
 1d4:	2f 91       	pop	r18
 1d6:	0f 90       	pop	r0
 1d8:	0f be       	out	0x3f, r0	; 63
 1da:	0f 90       	pop	r0
 1dc:	1f 90       	pop	r1
 1de:	18 95       	reti

000001e0 <main>:
#include "ADC.h" 
#include "interrupt.h"

GLOBAL_VARIABLES_H;
int main(void)
{
 1e0:	ff cf       	rjmp	.-2      	; 0x1e0 <main>

000001e2 <__subsf3>:
 1e2:	50 58       	subi	r21, 0x80	; 128

000001e4 <__addsf3>:
 1e4:	bb 27       	eor	r27, r27
 1e6:	aa 27       	eor	r26, r26
 1e8:	0e 94 09 01 	call	0x212	; 0x212 <__addsf3x>
 1ec:	0c 94 24 02 	jmp	0x448	; 0x448 <__fp_round>
 1f0:	0e 94 16 02 	call	0x42c	; 0x42c <__fp_pscA>
 1f4:	38 f0       	brcs	.+14     	; 0x204 <__EEPROM_REGION_LENGTH__+0x4>
 1f6:	0e 94 1d 02 	call	0x43a	; 0x43a <__fp_pscB>
 1fa:	20 f0       	brcs	.+8      	; 0x204 <__EEPROM_REGION_LENGTH__+0x4>
 1fc:	39 f4       	brne	.+14     	; 0x20c <__EEPROM_REGION_LENGTH__+0xc>
 1fe:	9f 3f       	cpi	r25, 0xFF	; 255
 200:	19 f4       	brne	.+6      	; 0x208 <__EEPROM_REGION_LENGTH__+0x8>
 202:	26 f4       	brtc	.+8      	; 0x20c <__EEPROM_REGION_LENGTH__+0xc>
 204:	0c 94 13 02 	jmp	0x426	; 0x426 <__fp_nan>
 208:	0e f4       	brtc	.+2      	; 0x20c <__EEPROM_REGION_LENGTH__+0xc>
 20a:	e0 95       	com	r30
 20c:	e7 fb       	bst	r30, 7
 20e:	0c 94 0d 02 	jmp	0x41a	; 0x41a <__fp_inf>

00000212 <__addsf3x>:
 212:	e9 2f       	mov	r30, r25
 214:	0e 94 35 02 	call	0x46a	; 0x46a <__fp_split3>
 218:	58 f3       	brcs	.-42     	; 0x1f0 <__addsf3+0xc>
 21a:	ba 17       	cp	r27, r26
 21c:	62 07       	cpc	r22, r18
 21e:	73 07       	cpc	r23, r19
 220:	84 07       	cpc	r24, r20
 222:	95 07       	cpc	r25, r21
 224:	20 f0       	brcs	.+8      	; 0x22e <__addsf3x+0x1c>
 226:	79 f4       	brne	.+30     	; 0x246 <__addsf3x+0x34>
 228:	a6 f5       	brtc	.+104    	; 0x292 <__addsf3x+0x80>
 22a:	0c 94 57 02 	jmp	0x4ae	; 0x4ae <__fp_zero>
 22e:	0e f4       	brtc	.+2      	; 0x232 <__addsf3x+0x20>
 230:	e0 95       	com	r30
 232:	0b 2e       	mov	r0, r27
 234:	ba 2f       	mov	r27, r26
 236:	a0 2d       	mov	r26, r0
 238:	0b 01       	movw	r0, r22
 23a:	b9 01       	movw	r22, r18
 23c:	90 01       	movw	r18, r0
 23e:	0c 01       	movw	r0, r24
 240:	ca 01       	movw	r24, r20
 242:	a0 01       	movw	r20, r0
 244:	11 24       	eor	r1, r1
 246:	ff 27       	eor	r31, r31
 248:	59 1b       	sub	r21, r25
 24a:	99 f0       	breq	.+38     	; 0x272 <__addsf3x+0x60>
 24c:	59 3f       	cpi	r21, 0xF9	; 249
 24e:	50 f4       	brcc	.+20     	; 0x264 <__addsf3x+0x52>
 250:	50 3e       	cpi	r21, 0xE0	; 224
 252:	68 f1       	brcs	.+90     	; 0x2ae <__addsf3x+0x9c>
 254:	1a 16       	cp	r1, r26
 256:	f0 40       	sbci	r31, 0x00	; 0
 258:	a2 2f       	mov	r26, r18
 25a:	23 2f       	mov	r18, r19
 25c:	34 2f       	mov	r19, r20
 25e:	44 27       	eor	r20, r20
 260:	58 5f       	subi	r21, 0xF8	; 248
 262:	f3 cf       	rjmp	.-26     	; 0x24a <__addsf3x+0x38>
 264:	46 95       	lsr	r20
 266:	37 95       	ror	r19
 268:	27 95       	ror	r18
 26a:	a7 95       	ror	r26
 26c:	f0 40       	sbci	r31, 0x00	; 0
 26e:	53 95       	inc	r21
 270:	c9 f7       	brne	.-14     	; 0x264 <__addsf3x+0x52>
 272:	7e f4       	brtc	.+30     	; 0x292 <__addsf3x+0x80>
 274:	1f 16       	cp	r1, r31
 276:	ba 0b       	sbc	r27, r26
 278:	62 0b       	sbc	r22, r18
 27a:	73 0b       	sbc	r23, r19
 27c:	84 0b       	sbc	r24, r20
 27e:	ba f0       	brmi	.+46     	; 0x2ae <__addsf3x+0x9c>
 280:	91 50       	subi	r25, 0x01	; 1
 282:	a1 f0       	breq	.+40     	; 0x2ac <__addsf3x+0x9a>
 284:	ff 0f       	add	r31, r31
 286:	bb 1f       	adc	r27, r27
 288:	66 1f       	adc	r22, r22
 28a:	77 1f       	adc	r23, r23
 28c:	88 1f       	adc	r24, r24
 28e:	c2 f7       	brpl	.-16     	; 0x280 <__addsf3x+0x6e>
 290:	0e c0       	rjmp	.+28     	; 0x2ae <__addsf3x+0x9c>
 292:	ba 0f       	add	r27, r26
 294:	62 1f       	adc	r22, r18
 296:	73 1f       	adc	r23, r19
 298:	84 1f       	adc	r24, r20
 29a:	48 f4       	brcc	.+18     	; 0x2ae <__addsf3x+0x9c>
 29c:	87 95       	ror	r24
 29e:	77 95       	ror	r23
 2a0:	67 95       	ror	r22
 2a2:	b7 95       	ror	r27
 2a4:	f7 95       	ror	r31
 2a6:	9e 3f       	cpi	r25, 0xFE	; 254
 2a8:	08 f0       	brcs	.+2      	; 0x2ac <__addsf3x+0x9a>
 2aa:	b0 cf       	rjmp	.-160    	; 0x20c <__EEPROM_REGION_LENGTH__+0xc>
 2ac:	93 95       	inc	r25
 2ae:	88 0f       	add	r24, r24
 2b0:	08 f0       	brcs	.+2      	; 0x2b4 <__addsf3x+0xa2>
 2b2:	99 27       	eor	r25, r25
 2b4:	ee 0f       	add	r30, r30
 2b6:	97 95       	ror	r25
 2b8:	87 95       	ror	r24
 2ba:	08 95       	ret

000002bc <__divsf3>:
 2bc:	0e 94 72 01 	call	0x2e4	; 0x2e4 <__divsf3x>
 2c0:	0c 94 24 02 	jmp	0x448	; 0x448 <__fp_round>
 2c4:	0e 94 1d 02 	call	0x43a	; 0x43a <__fp_pscB>
 2c8:	58 f0       	brcs	.+22     	; 0x2e0 <__divsf3+0x24>
 2ca:	0e 94 16 02 	call	0x42c	; 0x42c <__fp_pscA>
 2ce:	40 f0       	brcs	.+16     	; 0x2e0 <__divsf3+0x24>
 2d0:	29 f4       	brne	.+10     	; 0x2dc <__divsf3+0x20>
 2d2:	5f 3f       	cpi	r21, 0xFF	; 255
 2d4:	29 f0       	breq	.+10     	; 0x2e0 <__divsf3+0x24>
 2d6:	0c 94 0d 02 	jmp	0x41a	; 0x41a <__fp_inf>
 2da:	51 11       	cpse	r21, r1
 2dc:	0c 94 58 02 	jmp	0x4b0	; 0x4b0 <__fp_szero>
 2e0:	0c 94 13 02 	jmp	0x426	; 0x426 <__fp_nan>

000002e4 <__divsf3x>:
 2e4:	0e 94 35 02 	call	0x46a	; 0x46a <__fp_split3>
 2e8:	68 f3       	brcs	.-38     	; 0x2c4 <__divsf3+0x8>

000002ea <__divsf3_pse>:
 2ea:	99 23       	and	r25, r25
 2ec:	b1 f3       	breq	.-20     	; 0x2da <__divsf3+0x1e>
 2ee:	55 23       	and	r21, r21
 2f0:	91 f3       	breq	.-28     	; 0x2d6 <__divsf3+0x1a>
 2f2:	95 1b       	sub	r25, r21
 2f4:	55 0b       	sbc	r21, r21
 2f6:	bb 27       	eor	r27, r27
 2f8:	aa 27       	eor	r26, r26
 2fa:	62 17       	cp	r22, r18
 2fc:	73 07       	cpc	r23, r19
 2fe:	84 07       	cpc	r24, r20
 300:	38 f0       	brcs	.+14     	; 0x310 <__divsf3_pse+0x26>
 302:	9f 5f       	subi	r25, 0xFF	; 255
 304:	5f 4f       	sbci	r21, 0xFF	; 255
 306:	22 0f       	add	r18, r18
 308:	33 1f       	adc	r19, r19
 30a:	44 1f       	adc	r20, r20
 30c:	aa 1f       	adc	r26, r26
 30e:	a9 f3       	breq	.-22     	; 0x2fa <__divsf3_pse+0x10>
 310:	35 d0       	rcall	.+106    	; 0x37c <__divsf3_pse+0x92>
 312:	0e 2e       	mov	r0, r30
 314:	3a f0       	brmi	.+14     	; 0x324 <__divsf3_pse+0x3a>
 316:	e0 e8       	ldi	r30, 0x80	; 128
 318:	32 d0       	rcall	.+100    	; 0x37e <__divsf3_pse+0x94>
 31a:	91 50       	subi	r25, 0x01	; 1
 31c:	50 40       	sbci	r21, 0x00	; 0
 31e:	e6 95       	lsr	r30
 320:	00 1c       	adc	r0, r0
 322:	ca f7       	brpl	.-14     	; 0x316 <__divsf3_pse+0x2c>
 324:	2b d0       	rcall	.+86     	; 0x37c <__divsf3_pse+0x92>
 326:	fe 2f       	mov	r31, r30
 328:	29 d0       	rcall	.+82     	; 0x37c <__divsf3_pse+0x92>
 32a:	66 0f       	add	r22, r22
 32c:	77 1f       	adc	r23, r23
 32e:	88 1f       	adc	r24, r24
 330:	bb 1f       	adc	r27, r27
 332:	26 17       	cp	r18, r22
 334:	37 07       	cpc	r19, r23
 336:	48 07       	cpc	r20, r24
 338:	ab 07       	cpc	r26, r27
 33a:	b0 e8       	ldi	r27, 0x80	; 128
 33c:	09 f0       	breq	.+2      	; 0x340 <__divsf3_pse+0x56>
 33e:	bb 0b       	sbc	r27, r27
 340:	80 2d       	mov	r24, r0
 342:	bf 01       	movw	r22, r30
 344:	ff 27       	eor	r31, r31
 346:	93 58       	subi	r25, 0x83	; 131
 348:	5f 4f       	sbci	r21, 0xFF	; 255
 34a:	3a f0       	brmi	.+14     	; 0x35a <__divsf3_pse+0x70>
 34c:	9e 3f       	cpi	r25, 0xFE	; 254
 34e:	51 05       	cpc	r21, r1
 350:	78 f0       	brcs	.+30     	; 0x370 <__divsf3_pse+0x86>
 352:	0c 94 0d 02 	jmp	0x41a	; 0x41a <__fp_inf>
 356:	0c 94 58 02 	jmp	0x4b0	; 0x4b0 <__fp_szero>
 35a:	5f 3f       	cpi	r21, 0xFF	; 255
 35c:	e4 f3       	brlt	.-8      	; 0x356 <__divsf3_pse+0x6c>
 35e:	98 3e       	cpi	r25, 0xE8	; 232
 360:	d4 f3       	brlt	.-12     	; 0x356 <__divsf3_pse+0x6c>
 362:	86 95       	lsr	r24
 364:	77 95       	ror	r23
 366:	67 95       	ror	r22
 368:	b7 95       	ror	r27
 36a:	f7 95       	ror	r31
 36c:	9f 5f       	subi	r25, 0xFF	; 255
 36e:	c9 f7       	brne	.-14     	; 0x362 <__divsf3_pse+0x78>
 370:	88 0f       	add	r24, r24
 372:	91 1d       	adc	r25, r1
 374:	96 95       	lsr	r25
 376:	87 95       	ror	r24
 378:	97 f9       	bld	r25, 7
 37a:	08 95       	ret
 37c:	e1 e0       	ldi	r30, 0x01	; 1
 37e:	66 0f       	add	r22, r22
 380:	77 1f       	adc	r23, r23
 382:	88 1f       	adc	r24, r24
 384:	bb 1f       	adc	r27, r27
 386:	62 17       	cp	r22, r18
 388:	73 07       	cpc	r23, r19
 38a:	84 07       	cpc	r24, r20
 38c:	ba 07       	cpc	r27, r26
 38e:	20 f0       	brcs	.+8      	; 0x398 <__divsf3_pse+0xae>
 390:	62 1b       	sub	r22, r18
 392:	73 0b       	sbc	r23, r19
 394:	84 0b       	sbc	r24, r20
 396:	ba 0b       	sbc	r27, r26
 398:	ee 1f       	adc	r30, r30
 39a:	88 f7       	brcc	.-30     	; 0x37e <__divsf3_pse+0x94>
 39c:	e0 95       	com	r30
 39e:	08 95       	ret

000003a0 <__floatunsisf>:
 3a0:	e8 94       	clt
 3a2:	09 c0       	rjmp	.+18     	; 0x3b6 <__floatsisf+0x12>

000003a4 <__floatsisf>:
 3a4:	97 fb       	bst	r25, 7
 3a6:	3e f4       	brtc	.+14     	; 0x3b6 <__floatsisf+0x12>
 3a8:	90 95       	com	r25
 3aa:	80 95       	com	r24
 3ac:	70 95       	com	r23
 3ae:	61 95       	neg	r22
 3b0:	7f 4f       	sbci	r23, 0xFF	; 255
 3b2:	8f 4f       	sbci	r24, 0xFF	; 255
 3b4:	9f 4f       	sbci	r25, 0xFF	; 255
 3b6:	99 23       	and	r25, r25
 3b8:	a9 f0       	breq	.+42     	; 0x3e4 <__floatsisf+0x40>
 3ba:	f9 2f       	mov	r31, r25
 3bc:	96 e9       	ldi	r25, 0x96	; 150
 3be:	bb 27       	eor	r27, r27
 3c0:	93 95       	inc	r25
 3c2:	f6 95       	lsr	r31
 3c4:	87 95       	ror	r24
 3c6:	77 95       	ror	r23
 3c8:	67 95       	ror	r22
 3ca:	b7 95       	ror	r27
 3cc:	f1 11       	cpse	r31, r1
 3ce:	f8 cf       	rjmp	.-16     	; 0x3c0 <__floatsisf+0x1c>
 3d0:	fa f4       	brpl	.+62     	; 0x410 <__DATA_REGION_LENGTH__+0x10>
 3d2:	bb 0f       	add	r27, r27
 3d4:	11 f4       	brne	.+4      	; 0x3da <__floatsisf+0x36>
 3d6:	60 ff       	sbrs	r22, 0
 3d8:	1b c0       	rjmp	.+54     	; 0x410 <__DATA_REGION_LENGTH__+0x10>
 3da:	6f 5f       	subi	r22, 0xFF	; 255
 3dc:	7f 4f       	sbci	r23, 0xFF	; 255
 3de:	8f 4f       	sbci	r24, 0xFF	; 255
 3e0:	9f 4f       	sbci	r25, 0xFF	; 255
 3e2:	16 c0       	rjmp	.+44     	; 0x410 <__DATA_REGION_LENGTH__+0x10>
 3e4:	88 23       	and	r24, r24
 3e6:	11 f0       	breq	.+4      	; 0x3ec <__floatsisf+0x48>
 3e8:	96 e9       	ldi	r25, 0x96	; 150
 3ea:	11 c0       	rjmp	.+34     	; 0x40e <__DATA_REGION_LENGTH__+0xe>
 3ec:	77 23       	and	r23, r23
 3ee:	21 f0       	breq	.+8      	; 0x3f8 <__floatsisf+0x54>
 3f0:	9e e8       	ldi	r25, 0x8E	; 142
 3f2:	87 2f       	mov	r24, r23
 3f4:	76 2f       	mov	r23, r22
 3f6:	05 c0       	rjmp	.+10     	; 0x402 <__DATA_REGION_LENGTH__+0x2>
 3f8:	66 23       	and	r22, r22
 3fa:	71 f0       	breq	.+28     	; 0x418 <__DATA_REGION_LENGTH__+0x18>
 3fc:	96 e8       	ldi	r25, 0x86	; 134
 3fe:	86 2f       	mov	r24, r22
 400:	70 e0       	ldi	r23, 0x00	; 0
 402:	60 e0       	ldi	r22, 0x00	; 0
 404:	2a f0       	brmi	.+10     	; 0x410 <__DATA_REGION_LENGTH__+0x10>
 406:	9a 95       	dec	r25
 408:	66 0f       	add	r22, r22
 40a:	77 1f       	adc	r23, r23
 40c:	88 1f       	adc	r24, r24
 40e:	da f7       	brpl	.-10     	; 0x406 <__DATA_REGION_LENGTH__+0x6>
 410:	88 0f       	add	r24, r24
 412:	96 95       	lsr	r25
 414:	87 95       	ror	r24
 416:	97 f9       	bld	r25, 7
 418:	08 95       	ret

0000041a <__fp_inf>:
 41a:	97 f9       	bld	r25, 7
 41c:	9f 67       	ori	r25, 0x7F	; 127
 41e:	80 e8       	ldi	r24, 0x80	; 128
 420:	70 e0       	ldi	r23, 0x00	; 0
 422:	60 e0       	ldi	r22, 0x00	; 0
 424:	08 95       	ret

00000426 <__fp_nan>:
 426:	9f ef       	ldi	r25, 0xFF	; 255
 428:	80 ec       	ldi	r24, 0xC0	; 192
 42a:	08 95       	ret

0000042c <__fp_pscA>:
 42c:	00 24       	eor	r0, r0
 42e:	0a 94       	dec	r0
 430:	16 16       	cp	r1, r22
 432:	17 06       	cpc	r1, r23
 434:	18 06       	cpc	r1, r24
 436:	09 06       	cpc	r0, r25
 438:	08 95       	ret

0000043a <__fp_pscB>:
 43a:	00 24       	eor	r0, r0
 43c:	0a 94       	dec	r0
 43e:	12 16       	cp	r1, r18
 440:	13 06       	cpc	r1, r19
 442:	14 06       	cpc	r1, r20
 444:	05 06       	cpc	r0, r21
 446:	08 95       	ret

00000448 <__fp_round>:
 448:	09 2e       	mov	r0, r25
 44a:	03 94       	inc	r0
 44c:	00 0c       	add	r0, r0
 44e:	11 f4       	brne	.+4      	; 0x454 <__fp_round+0xc>
 450:	88 23       	and	r24, r24
 452:	52 f0       	brmi	.+20     	; 0x468 <__stack+0x9>
 454:	bb 0f       	add	r27, r27
 456:	40 f4       	brcc	.+16     	; 0x468 <__stack+0x9>
 458:	bf 2b       	or	r27, r31
 45a:	11 f4       	brne	.+4      	; 0x460 <__stack+0x1>
 45c:	60 ff       	sbrs	r22, 0
 45e:	04 c0       	rjmp	.+8      	; 0x468 <__stack+0x9>
 460:	6f 5f       	subi	r22, 0xFF	; 255
 462:	7f 4f       	sbci	r23, 0xFF	; 255
 464:	8f 4f       	sbci	r24, 0xFF	; 255
 466:	9f 4f       	sbci	r25, 0xFF	; 255
 468:	08 95       	ret

0000046a <__fp_split3>:
 46a:	57 fd       	sbrc	r21, 7
 46c:	90 58       	subi	r25, 0x80	; 128
 46e:	44 0f       	add	r20, r20
 470:	55 1f       	adc	r21, r21
 472:	59 f0       	breq	.+22     	; 0x48a <__fp_splitA+0x10>
 474:	5f 3f       	cpi	r21, 0xFF	; 255
 476:	71 f0       	breq	.+28     	; 0x494 <__fp_splitA+0x1a>
 478:	47 95       	ror	r20

0000047a <__fp_splitA>:
 47a:	88 0f       	add	r24, r24
 47c:	97 fb       	bst	r25, 7
 47e:	99 1f       	adc	r25, r25
 480:	61 f0       	breq	.+24     	; 0x49a <__fp_splitA+0x20>
 482:	9f 3f       	cpi	r25, 0xFF	; 255
 484:	79 f0       	breq	.+30     	; 0x4a4 <__fp_splitA+0x2a>
 486:	87 95       	ror	r24
 488:	08 95       	ret
 48a:	12 16       	cp	r1, r18
 48c:	13 06       	cpc	r1, r19
 48e:	14 06       	cpc	r1, r20
 490:	55 1f       	adc	r21, r21
 492:	f2 cf       	rjmp	.-28     	; 0x478 <__fp_split3+0xe>
 494:	46 95       	lsr	r20
 496:	f1 df       	rcall	.-30     	; 0x47a <__fp_splitA>
 498:	08 c0       	rjmp	.+16     	; 0x4aa <__fp_splitA+0x30>
 49a:	16 16       	cp	r1, r22
 49c:	17 06       	cpc	r1, r23
 49e:	18 06       	cpc	r1, r24
 4a0:	99 1f       	adc	r25, r25
 4a2:	f1 cf       	rjmp	.-30     	; 0x486 <__fp_splitA+0xc>
 4a4:	86 95       	lsr	r24
 4a6:	71 05       	cpc	r23, r1
 4a8:	61 05       	cpc	r22, r1
 4aa:	08 94       	sec
 4ac:	08 95       	ret

000004ae <__fp_zero>:
 4ae:	e8 94       	clt

000004b0 <__fp_szero>:
 4b0:	bb 27       	eor	r27, r27
 4b2:	66 27       	eor	r22, r22
 4b4:	77 27       	eor	r23, r23
 4b6:	cb 01       	movw	r24, r22
 4b8:	97 f9       	bld	r25, 7
 4ba:	08 95       	ret

000004bc <__mulsf3>:
 4bc:	0e 94 71 02 	call	0x4e2	; 0x4e2 <__mulsf3x>
 4c0:	0c 94 24 02 	jmp	0x448	; 0x448 <__fp_round>
 4c4:	0e 94 16 02 	call	0x42c	; 0x42c <__fp_pscA>
 4c8:	38 f0       	brcs	.+14     	; 0x4d8 <__mulsf3+0x1c>
 4ca:	0e 94 1d 02 	call	0x43a	; 0x43a <__fp_pscB>
 4ce:	20 f0       	brcs	.+8      	; 0x4d8 <__mulsf3+0x1c>
 4d0:	95 23       	and	r25, r21
 4d2:	11 f0       	breq	.+4      	; 0x4d8 <__mulsf3+0x1c>
 4d4:	0c 94 0d 02 	jmp	0x41a	; 0x41a <__fp_inf>
 4d8:	0c 94 13 02 	jmp	0x426	; 0x426 <__fp_nan>
 4dc:	11 24       	eor	r1, r1
 4de:	0c 94 58 02 	jmp	0x4b0	; 0x4b0 <__fp_szero>

000004e2 <__mulsf3x>:
 4e2:	0e 94 35 02 	call	0x46a	; 0x46a <__fp_split3>
 4e6:	70 f3       	brcs	.-36     	; 0x4c4 <__mulsf3+0x8>

000004e8 <__mulsf3_pse>:
 4e8:	95 9f       	mul	r25, r21
 4ea:	c1 f3       	breq	.-16     	; 0x4dc <__mulsf3+0x20>
 4ec:	95 0f       	add	r25, r21
 4ee:	50 e0       	ldi	r21, 0x00	; 0
 4f0:	55 1f       	adc	r21, r21
 4f2:	62 9f       	mul	r22, r18
 4f4:	f0 01       	movw	r30, r0
 4f6:	72 9f       	mul	r23, r18
 4f8:	bb 27       	eor	r27, r27
 4fa:	f0 0d       	add	r31, r0
 4fc:	b1 1d       	adc	r27, r1
 4fe:	63 9f       	mul	r22, r19
 500:	aa 27       	eor	r26, r26
 502:	f0 0d       	add	r31, r0
 504:	b1 1d       	adc	r27, r1
 506:	aa 1f       	adc	r26, r26
 508:	64 9f       	mul	r22, r20
 50a:	66 27       	eor	r22, r22
 50c:	b0 0d       	add	r27, r0
 50e:	a1 1d       	adc	r26, r1
 510:	66 1f       	adc	r22, r22
 512:	82 9f       	mul	r24, r18
 514:	22 27       	eor	r18, r18
 516:	b0 0d       	add	r27, r0
 518:	a1 1d       	adc	r26, r1
 51a:	62 1f       	adc	r22, r18
 51c:	73 9f       	mul	r23, r19
 51e:	b0 0d       	add	r27, r0
 520:	a1 1d       	adc	r26, r1
 522:	62 1f       	adc	r22, r18
 524:	83 9f       	mul	r24, r19
 526:	a0 0d       	add	r26, r0
 528:	61 1d       	adc	r22, r1
 52a:	22 1f       	adc	r18, r18
 52c:	74 9f       	mul	r23, r20
 52e:	33 27       	eor	r19, r19
 530:	a0 0d       	add	r26, r0
 532:	61 1d       	adc	r22, r1
 534:	23 1f       	adc	r18, r19
 536:	84 9f       	mul	r24, r20
 538:	60 0d       	add	r22, r0
 53a:	21 1d       	adc	r18, r1
 53c:	82 2f       	mov	r24, r18
 53e:	76 2f       	mov	r23, r22
 540:	6a 2f       	mov	r22, r26
 542:	11 24       	eor	r1, r1
 544:	9f 57       	subi	r25, 0x7F	; 127
 546:	50 40       	sbci	r21, 0x00	; 0
 548:	9a f0       	brmi	.+38     	; 0x570 <__mulsf3_pse+0x88>
 54a:	f1 f0       	breq	.+60     	; 0x588 <__mulsf3_pse+0xa0>
 54c:	88 23       	and	r24, r24
 54e:	4a f0       	brmi	.+18     	; 0x562 <__mulsf3_pse+0x7a>
 550:	ee 0f       	add	r30, r30
 552:	ff 1f       	adc	r31, r31
 554:	bb 1f       	adc	r27, r27
 556:	66 1f       	adc	r22, r22
 558:	77 1f       	adc	r23, r23
 55a:	88 1f       	adc	r24, r24
 55c:	91 50       	subi	r25, 0x01	; 1
 55e:	50 40       	sbci	r21, 0x00	; 0
 560:	a9 f7       	brne	.-22     	; 0x54c <__mulsf3_pse+0x64>
 562:	9e 3f       	cpi	r25, 0xFE	; 254
 564:	51 05       	cpc	r21, r1
 566:	80 f0       	brcs	.+32     	; 0x588 <__mulsf3_pse+0xa0>
 568:	0c 94 0d 02 	jmp	0x41a	; 0x41a <__fp_inf>
 56c:	0c 94 58 02 	jmp	0x4b0	; 0x4b0 <__fp_szero>
 570:	5f 3f       	cpi	r21, 0xFF	; 255
 572:	e4 f3       	brlt	.-8      	; 0x56c <__mulsf3_pse+0x84>
 574:	98 3e       	cpi	r25, 0xE8	; 232
 576:	d4 f3       	brlt	.-12     	; 0x56c <__mulsf3_pse+0x84>
 578:	86 95       	lsr	r24
 57a:	77 95       	ror	r23
 57c:	67 95       	ror	r22
 57e:	b7 95       	ror	r27
 580:	f7 95       	ror	r31
 582:	e7 95       	ror	r30
 584:	9f 5f       	subi	r25, 0xFF	; 255
 586:	c1 f7       	brne	.-16     	; 0x578 <__mulsf3_pse+0x90>
 588:	fe 2b       	or	r31, r30
 58a:	88 0f       	add	r24, r24
 58c:	91 1d       	adc	r25, r1
 58e:	96 95       	lsr	r25
 590:	87 95       	ror	r24
 592:	97 f9       	bld	r25, 7
 594:	08 95       	ret

00000596 <_exit>:
 596:	f8 94       	cli

00000598 <__stop_program>:
 598:	ff cf       	rjmp	.-2      	; 0x598 <__stop_program>
