
ElecHeatsoftware.elf:     file format elf32-avr

Sections:
Idx Name          Size      VMA       LMA       File off  Algn
  0 .text         0000058e  00000000  00000000  00000074  2**1
                  CONTENTS, ALLOC, LOAD, READONLY, CODE
  1 .data         00000000  00800060  00800060  00000602  2**0
                  CONTENTS, ALLOC, LOAD, DATA
  2 .bss          0000000f  00800060  00800060  00000602  2**0
                  ALLOC
  3 .comment      00000030  00000000  00000000  00000602  2**0
                  CONTENTS, READONLY
  4 .note.gnu.avr.deviceinfo 0000003c  00000000  00000000  00000634  2**2
                  CONTENTS, READONLY
  5 .debug_info   0000052e  00000000  00000000  00000670  2**0
                  CONTENTS, READONLY, DEBUGGING
  6 .debug_abbrev 000004e7  00000000  00000000  00000b9e  2**0
                  CONTENTS, READONLY, DEBUGGING
  7 .debug_line   00000116  00000000  00000000  00001085  2**0
                  CONTENTS, READONLY, DEBUGGING
  8 .debug_str    000001af  00000000  00000000  0000119b  2**0
                  CONTENTS, READONLY, DEBUGGING

Disassembly of section .text:

00000000 <__vectors>:
   0:	0c 94 2a 00 	jmp	0x54	; 0x54 <__ctors_end>
   4:	0c 94 3c 00 	jmp	0x78	; 0x78 <__bad_interrupt>
   8:	0c 94 3c 00 	jmp	0x78	; 0x78 <__bad_interrupt>
   c:	0c 94 3c 00 	jmp	0x78	; 0x78 <__bad_interrupt>
  10:	0c 94 3c 00 	jmp	0x78	; 0x78 <__bad_interrupt>
  14:	0c 94 3c 00 	jmp	0x78	; 0x78 <__bad_interrupt>
  18:	0c 94 3c 00 	jmp	0x78	; 0x78 <__bad_interrupt>
  1c:	0c 94 3c 00 	jmp	0x78	; 0x78 <__bad_interrupt>
  20:	0c 94 c2 00 	jmp	0x184	; 0x184 <__vector_8>
  24:	0c 94 3c 00 	jmp	0x78	; 0x78 <__bad_interrupt>
  28:	0c 94 3c 00 	jmp	0x78	; 0x78 <__bad_interrupt>
  2c:	0c 94 3c 00 	jmp	0x78	; 0x78 <__bad_interrupt>
  30:	0c 94 3c 00 	jmp	0x78	; 0x78 <__bad_interrupt>
  34:	0c 94 3c 00 	jmp	0x78	; 0x78 <__bad_interrupt>
  38:	0c 94 3c 00 	jmp	0x78	; 0x78 <__bad_interrupt>
  3c:	0c 94 3c 00 	jmp	0x78	; 0x78 <__bad_interrupt>
  40:	0c 94 3c 00 	jmp	0x78	; 0x78 <__bad_interrupt>
  44:	0c 94 3c 00 	jmp	0x78	; 0x78 <__bad_interrupt>
  48:	0c 94 3c 00 	jmp	0x78	; 0x78 <__bad_interrupt>
  4c:	0c 94 3c 00 	jmp	0x78	; 0x78 <__bad_interrupt>
  50:	0c 94 3c 00 	jmp	0x78	; 0x78 <__bad_interrupt>

00000054 <__ctors_end>:
  54:	11 24       	eor	r1, r1
  56:	1f be       	out	0x3f, r1	; 63
  58:	cf e5       	ldi	r28, 0x5F	; 95
  5a:	d4 e0       	ldi	r29, 0x04	; 4
  5c:	de bf       	out	0x3e, r29	; 62
  5e:	cd bf       	out	0x3d, r28	; 61

00000060 <__do_clear_bss>:
  60:	20 e0       	ldi	r18, 0x00	; 0
  62:	a0 e6       	ldi	r26, 0x60	; 96
  64:	b0 e0       	ldi	r27, 0x00	; 0
  66:	01 c0       	rjmp	.+2      	; 0x6a <.do_clear_bss_start>

00000068 <.do_clear_bss_loop>:
  68:	1d 92       	st	X+, r1

0000006a <.do_clear_bss_start>:
  6a:	af 36       	cpi	r26, 0x6F	; 111
  6c:	b2 07       	cpc	r27, r18
  6e:	e1 f7       	brne	.-8      	; 0x68 <.do_clear_bss_loop>
  70:	0e 94 ea 00 	call	0x1d4	; 0x1d4 <main>
  74:	0c 94 c5 02 	jmp	0x58a	; 0x58a <_exit>

00000078 <__bad_interrupt>:
  78:	0c 94 00 00 	jmp	0	; 0x0 <__vectors>

0000007c <ADC_readChannel>:
  7c:	97 b1       	in	r25, 0x07	; 7
  7e:	90 7e       	andi	r25, 0xE0	; 224
  80:	97 b9       	out	0x07, r25	; 7
  82:	97 b1       	in	r25, 0x07	; 7
  84:	87 70       	andi	r24, 0x07	; 7
  86:	98 2b       	or	r25, r24
  88:	97 b9       	out	0x07, r25	; 7
  8a:	36 9a       	sbi	0x06, 6	; 6
  8c:	34 9b       	sbis	0x06, 4	; 6
  8e:	fe cf       	rjmp	.-4      	; 0x8c <ADC_readChannel+0x10>
  90:	34 9a       	sbi	0x06, 4	; 6
  92:	84 b1       	in	r24, 0x04	; 4
  94:	95 b1       	in	r25, 0x05	; 5
  96:	08 95       	ret

00000098 <Avg_reading>:
  98:	60 91 65 00 	lds	r22, 0x0065	; 0x800065 <x>
  9c:	70 91 66 00 	lds	r23, 0x0066	; 0x800066 <x+0x1>
  a0:	80 91 67 00 	lds	r24, 0x0067	; 0x800067 <x+0x2>
  a4:	90 91 68 00 	lds	r25, 0x0068	; 0x800068 <x+0x3>
  a8:	20 91 6b 00 	lds	r18, 0x006B	; 0x80006b <sum>
  ac:	30 91 6c 00 	lds	r19, 0x006C	; 0x80006c <sum+0x1>
  b0:	40 91 6d 00 	lds	r20, 0x006D	; 0x80006d <sum+0x2>
  b4:	50 91 6e 00 	lds	r21, 0x006E	; 0x80006e <sum+0x3>
  b8:	0e 94 ec 00 	call	0x1d8	; 0x1d8 <__addsf3>
  bc:	60 93 6b 00 	sts	0x006B, r22	; 0x80006b <sum>
  c0:	70 93 6c 00 	sts	0x006C, r23	; 0x80006c <sum+0x1>
  c4:	80 93 6d 00 	sts	0x006D, r24	; 0x80006d <sum+0x2>
  c8:	90 93 6e 00 	sts	0x006E, r25	; 0x80006e <sum+0x3>
  cc:	20 91 60 00 	lds	r18, 0x0060	; 0x800060 <__DATA_REGION_ORIGIN__>
  d0:	2f 5f       	subi	r18, 0xFF	; 255
  d2:	20 93 60 00 	sts	0x0060, r18	; 0x800060 <__DATA_REGION_ORIGIN__>
  d6:	29 30       	cpi	r18, 0x09	; 9
  d8:	c1 f4       	brne	.+48     	; 0x10a <Avg_reading+0x72>
  da:	24 e1       	ldi	r18, 0x14	; 20
  dc:	3e ea       	ldi	r19, 0xAE	; 174
  de:	41 e1       	ldi	r20, 0x11	; 17
  e0:	51 e4       	ldi	r21, 0x41	; 65
  e2:	0e 94 58 01 	call	0x2b0	; 0x2b0 <__divsf3>
  e6:	60 93 61 00 	sts	0x0061, r22	; 0x800061 <average>
  ea:	70 93 62 00 	sts	0x0062, r23	; 0x800062 <average+0x1>
  ee:	80 93 63 00 	sts	0x0063, r24	; 0x800063 <average+0x2>
  f2:	90 93 64 00 	sts	0x0064, r25	; 0x800064 <average+0x3>
  f6:	10 92 60 00 	sts	0x0060, r1	; 0x800060 <__DATA_REGION_ORIGIN__>
  fa:	10 92 6b 00 	sts	0x006B, r1	; 0x80006b <sum>
  fe:	10 92 6c 00 	sts	0x006C, r1	; 0x80006c <sum+0x1>
 102:	10 92 6d 00 	sts	0x006D, r1	; 0x80006d <sum+0x2>
 106:	10 92 6e 00 	sts	0x006E, r1	; 0x80006e <sum+0x3>
 10a:	08 95       	ret

0000010c <Temperature_reading>:
 10c:	80 e0       	ldi	r24, 0x00	; 0
 10e:	90 e0       	ldi	r25, 0x00	; 0
 110:	0e 94 3e 00 	call	0x7c	; 0x7c <ADC_readChannel>
 114:	90 93 6a 00 	sts	0x006A, r25	; 0x80006a <volt+0x1>
 118:	80 93 69 00 	sts	0x0069, r24	; 0x800069 <volt>
 11c:	80 91 69 00 	lds	r24, 0x0069	; 0x800069 <volt>
 120:	90 91 6a 00 	lds	r25, 0x006A	; 0x80006a <volt+0x1>
 124:	25 e0       	ldi	r18, 0x05	; 5
 126:	28 9f       	mul	r18, r24
 128:	b0 01       	movw	r22, r0
 12a:	29 9f       	mul	r18, r25
 12c:	70 0d       	add	r23, r0
 12e:	11 24       	eor	r1, r1
 130:	80 e0       	ldi	r24, 0x00	; 0
 132:	90 e0       	ldi	r25, 0x00	; 0
 134:	0e 94 ca 01 	call	0x394	; 0x394 <__floatunsisf>
 138:	20 e0       	ldi	r18, 0x00	; 0
 13a:	30 ec       	ldi	r19, 0xC0	; 192
 13c:	4f e7       	ldi	r20, 0x7F	; 127
 13e:	54 e4       	ldi	r21, 0x44	; 68
 140:	0e 94 58 01 	call	0x2b0	; 0x2b0 <__divsf3>
 144:	60 93 65 00 	sts	0x0065, r22	; 0x800065 <x>
 148:	70 93 66 00 	sts	0x0066, r23	; 0x800066 <x+0x1>
 14c:	80 93 67 00 	sts	0x0067, r24	; 0x800067 <x+0x2>
 150:	90 93 68 00 	sts	0x0068, r25	; 0x800068 <x+0x3>
 154:	60 91 65 00 	lds	r22, 0x0065	; 0x800065 <x>
 158:	70 91 66 00 	lds	r23, 0x0066	; 0x800066 <x+0x1>
 15c:	80 91 67 00 	lds	r24, 0x0067	; 0x800067 <x+0x2>
 160:	90 91 68 00 	lds	r25, 0x0068	; 0x800068 <x+0x3>
 164:	20 e0       	ldi	r18, 0x00	; 0
 166:	30 e0       	ldi	r19, 0x00	; 0
 168:	48 ec       	ldi	r20, 0xC8	; 200
 16a:	52 e4       	ldi	r21, 0x42	; 66
 16c:	0e 94 58 02 	call	0x4b0	; 0x4b0 <__mulsf3>
 170:	60 93 65 00 	sts	0x0065, r22	; 0x800065 <x>
 174:	70 93 66 00 	sts	0x0066, r23	; 0x800066 <x+0x1>
 178:	80 93 67 00 	sts	0x0067, r24	; 0x800067 <x+0x2>
 17c:	90 93 68 00 	sts	0x0068, r25	; 0x800068 <x+0x3>
 180:	0c 94 4c 00 	jmp	0x98	; 0x98 <Avg_reading>

00000184 <__vector_8>:
 184:	1f 92       	push	r1
 186:	0f 92       	push	r0
 188:	0f b6       	in	r0, 0x3f	; 63
 18a:	0f 92       	push	r0
 18c:	11 24       	eor	r1, r1
 18e:	2f 93       	push	r18
 190:	3f 93       	push	r19
 192:	4f 93       	push	r20
 194:	5f 93       	push	r21
 196:	6f 93       	push	r22
 198:	7f 93       	push	r23
 19a:	8f 93       	push	r24
 19c:	9f 93       	push	r25
 19e:	af 93       	push	r26
 1a0:	bf 93       	push	r27
 1a2:	ef 93       	push	r30
 1a4:	ff 93       	push	r31
 1a6:	84 e6       	ldi	r24, 0x64	; 100
 1a8:	9f ef       	ldi	r25, 0xFF	; 255
 1aa:	9d bd       	out	0x2d, r25	; 45
 1ac:	8c bd       	out	0x2c, r24	; 44
 1ae:	0e 94 86 00 	call	0x10c	; 0x10c <Temperature_reading>
 1b2:	ff 91       	pop	r31
 1b4:	ef 91       	pop	r30
 1b6:	bf 91       	pop	r27
 1b8:	af 91       	pop	r26
 1ba:	9f 91       	pop	r25
 1bc:	8f 91       	pop	r24
 1be:	7f 91       	pop	r23
 1c0:	6f 91       	pop	r22
 1c2:	5f 91       	pop	r21
 1c4:	4f 91       	pop	r20
 1c6:	3f 91       	pop	r19
 1c8:	2f 91       	pop	r18
 1ca:	0f 90       	pop	r0
 1cc:	0f be       	out	0x3f, r0	; 63
 1ce:	0f 90       	pop	r0
 1d0:	1f 90       	pop	r1
 1d2:	18 95       	reti

000001d4 <main>:
 1d4:	ff cf       	rjmp	.-2      	; 0x1d4 <main>

000001d6 <__subsf3>:
 1d6:	50 58       	subi	r21, 0x80	; 128

000001d8 <__addsf3>:
 1d8:	bb 27       	eor	r27, r27
 1da:	aa 27       	eor	r26, r26
 1dc:	0e 94 03 01 	call	0x206	; 0x206 <__addsf3x>
 1e0:	0c 94 1e 02 	jmp	0x43c	; 0x43c <__fp_round>
 1e4:	0e 94 10 02 	call	0x420	; 0x420 <__fp_pscA>
 1e8:	38 f0       	brcs	.+14     	; 0x1f8 <__addsf3+0x20>
 1ea:	0e 94 17 02 	call	0x42e	; 0x42e <__fp_pscB>
 1ee:	20 f0       	brcs	.+8      	; 0x1f8 <__addsf3+0x20>
 1f0:	39 f4       	brne	.+14     	; 0x200 <__EEPROM_REGION_LENGTH__>
 1f2:	9f 3f       	cpi	r25, 0xFF	; 255
 1f4:	19 f4       	brne	.+6      	; 0x1fc <__addsf3+0x24>
 1f6:	26 f4       	brtc	.+8      	; 0x200 <__EEPROM_REGION_LENGTH__>
 1f8:	0c 94 0d 02 	jmp	0x41a	; 0x41a <__fp_nan>
 1fc:	0e f4       	brtc	.+2      	; 0x200 <__EEPROM_REGION_LENGTH__>
 1fe:	e0 95       	com	r30
 200:	e7 fb       	bst	r30, 7
 202:	0c 94 07 02 	jmp	0x40e	; 0x40e <__fp_inf>

00000206 <__addsf3x>:
 206:	e9 2f       	mov	r30, r25
 208:	0e 94 2f 02 	call	0x45e	; 0x45e <__fp_split3>
 20c:	58 f3       	brcs	.-42     	; 0x1e4 <__addsf3+0xc>
 20e:	ba 17       	cp	r27, r26
 210:	62 07       	cpc	r22, r18
 212:	73 07       	cpc	r23, r19
 214:	84 07       	cpc	r24, r20
 216:	95 07       	cpc	r25, r21
 218:	20 f0       	brcs	.+8      	; 0x222 <__addsf3x+0x1c>
 21a:	79 f4       	brne	.+30     	; 0x23a <__addsf3x+0x34>
 21c:	a6 f5       	brtc	.+104    	; 0x286 <__addsf3x+0x80>
 21e:	0c 94 51 02 	jmp	0x4a2	; 0x4a2 <__fp_zero>
 222:	0e f4       	brtc	.+2      	; 0x226 <__addsf3x+0x20>
 224:	e0 95       	com	r30
 226:	0b 2e       	mov	r0, r27
 228:	ba 2f       	mov	r27, r26
 22a:	a0 2d       	mov	r26, r0
 22c:	0b 01       	movw	r0, r22
 22e:	b9 01       	movw	r22, r18
 230:	90 01       	movw	r18, r0
 232:	0c 01       	movw	r0, r24
 234:	ca 01       	movw	r24, r20
 236:	a0 01       	movw	r20, r0
 238:	11 24       	eor	r1, r1
 23a:	ff 27       	eor	r31, r31
 23c:	59 1b       	sub	r21, r25
 23e:	99 f0       	breq	.+38     	; 0x266 <__addsf3x+0x60>
 240:	59 3f       	cpi	r21, 0xF9	; 249
 242:	50 f4       	brcc	.+20     	; 0x258 <__addsf3x+0x52>
 244:	50 3e       	cpi	r21, 0xE0	; 224
 246:	68 f1       	brcs	.+90     	; 0x2a2 <__addsf3x+0x9c>
 248:	1a 16       	cp	r1, r26
 24a:	f0 40       	sbci	r31, 0x00	; 0
 24c:	a2 2f       	mov	r26, r18
 24e:	23 2f       	mov	r18, r19
 250:	34 2f       	mov	r19, r20
 252:	44 27       	eor	r20, r20
 254:	58 5f       	subi	r21, 0xF8	; 248
 256:	f3 cf       	rjmp	.-26     	; 0x23e <__addsf3x+0x38>
 258:	46 95       	lsr	r20
 25a:	37 95       	ror	r19
 25c:	27 95       	ror	r18
 25e:	a7 95       	ror	r26
 260:	f0 40       	sbci	r31, 0x00	; 0
 262:	53 95       	inc	r21
 264:	c9 f7       	brne	.-14     	; 0x258 <__addsf3x+0x52>
 266:	7e f4       	brtc	.+30     	; 0x286 <__addsf3x+0x80>
 268:	1f 16       	cp	r1, r31
 26a:	ba 0b       	sbc	r27, r26
 26c:	62 0b       	sbc	r22, r18
 26e:	73 0b       	sbc	r23, r19
 270:	84 0b       	sbc	r24, r20
 272:	ba f0       	brmi	.+46     	; 0x2a2 <__addsf3x+0x9c>
 274:	91 50       	subi	r25, 0x01	; 1
 276:	a1 f0       	breq	.+40     	; 0x2a0 <__addsf3x+0x9a>
 278:	ff 0f       	add	r31, r31
 27a:	bb 1f       	adc	r27, r27
 27c:	66 1f       	adc	r22, r22
 27e:	77 1f       	adc	r23, r23
 280:	88 1f       	adc	r24, r24
 282:	c2 f7       	brpl	.-16     	; 0x274 <__addsf3x+0x6e>
 284:	0e c0       	rjmp	.+28     	; 0x2a2 <__addsf3x+0x9c>
 286:	ba 0f       	add	r27, r26
 288:	62 1f       	adc	r22, r18
 28a:	73 1f       	adc	r23, r19
 28c:	84 1f       	adc	r24, r20
 28e:	48 f4       	brcc	.+18     	; 0x2a2 <__addsf3x+0x9c>
 290:	87 95       	ror	r24
 292:	77 95       	ror	r23
 294:	67 95       	ror	r22
 296:	b7 95       	ror	r27
 298:	f7 95       	ror	r31
 29a:	9e 3f       	cpi	r25, 0xFE	; 254
 29c:	08 f0       	brcs	.+2      	; 0x2a0 <__addsf3x+0x9a>
 29e:	b0 cf       	rjmp	.-160    	; 0x200 <__EEPROM_REGION_LENGTH__>
 2a0:	93 95       	inc	r25
 2a2:	88 0f       	add	r24, r24
 2a4:	08 f0       	brcs	.+2      	; 0x2a8 <__addsf3x+0xa2>
 2a6:	99 27       	eor	r25, r25
 2a8:	ee 0f       	add	r30, r30
 2aa:	97 95       	ror	r25
 2ac:	87 95       	ror	r24
 2ae:	08 95       	ret

000002b0 <__divsf3>:
 2b0:	0e 94 6c 01 	call	0x2d8	; 0x2d8 <__divsf3x>
 2b4:	0c 94 1e 02 	jmp	0x43c	; 0x43c <__fp_round>
 2b8:	0e 94 17 02 	call	0x42e	; 0x42e <__fp_pscB>
 2bc:	58 f0       	brcs	.+22     	; 0x2d4 <__divsf3+0x24>
 2be:	0e 94 10 02 	call	0x420	; 0x420 <__fp_pscA>
 2c2:	40 f0       	brcs	.+16     	; 0x2d4 <__divsf3+0x24>
 2c4:	29 f4       	brne	.+10     	; 0x2d0 <__divsf3+0x20>
 2c6:	5f 3f       	cpi	r21, 0xFF	; 255
 2c8:	29 f0       	breq	.+10     	; 0x2d4 <__divsf3+0x24>
 2ca:	0c 94 07 02 	jmp	0x40e	; 0x40e <__fp_inf>
 2ce:	51 11       	cpse	r21, r1
 2d0:	0c 94 52 02 	jmp	0x4a4	; 0x4a4 <__fp_szero>
 2d4:	0c 94 0d 02 	jmp	0x41a	; 0x41a <__fp_nan>

000002d8 <__divsf3x>:
 2d8:	0e 94 2f 02 	call	0x45e	; 0x45e <__fp_split3>
 2dc:	68 f3       	brcs	.-38     	; 0x2b8 <__divsf3+0x8>

000002de <__divsf3_pse>:
 2de:	99 23       	and	r25, r25
 2e0:	b1 f3       	breq	.-20     	; 0x2ce <__divsf3+0x1e>
 2e2:	55 23       	and	r21, r21
 2e4:	91 f3       	breq	.-28     	; 0x2ca <__divsf3+0x1a>
 2e6:	95 1b       	sub	r25, r21
 2e8:	55 0b       	sbc	r21, r21
 2ea:	bb 27       	eor	r27, r27
 2ec:	aa 27       	eor	r26, r26
 2ee:	62 17       	cp	r22, r18
 2f0:	73 07       	cpc	r23, r19
 2f2:	84 07       	cpc	r24, r20
 2f4:	38 f0       	brcs	.+14     	; 0x304 <__divsf3_pse+0x26>
 2f6:	9f 5f       	subi	r25, 0xFF	; 255
 2f8:	5f 4f       	sbci	r21, 0xFF	; 255
 2fa:	22 0f       	add	r18, r18
 2fc:	33 1f       	adc	r19, r19
 2fe:	44 1f       	adc	r20, r20
 300:	aa 1f       	adc	r26, r26
 302:	a9 f3       	breq	.-22     	; 0x2ee <__divsf3_pse+0x10>
 304:	35 d0       	rcall	.+106    	; 0x370 <__divsf3_pse+0x92>
 306:	0e 2e       	mov	r0, r30
 308:	3a f0       	brmi	.+14     	; 0x318 <__divsf3_pse+0x3a>
 30a:	e0 e8       	ldi	r30, 0x80	; 128
 30c:	32 d0       	rcall	.+100    	; 0x372 <__divsf3_pse+0x94>
 30e:	91 50       	subi	r25, 0x01	; 1
 310:	50 40       	sbci	r21, 0x00	; 0
 312:	e6 95       	lsr	r30
 314:	00 1c       	adc	r0, r0
 316:	ca f7       	brpl	.-14     	; 0x30a <__divsf3_pse+0x2c>
 318:	2b d0       	rcall	.+86     	; 0x370 <__divsf3_pse+0x92>
 31a:	fe 2f       	mov	r31, r30
 31c:	29 d0       	rcall	.+82     	; 0x370 <__divsf3_pse+0x92>
 31e:	66 0f       	add	r22, r22
 320:	77 1f       	adc	r23, r23
 322:	88 1f       	adc	r24, r24
 324:	bb 1f       	adc	r27, r27
 326:	26 17       	cp	r18, r22
 328:	37 07       	cpc	r19, r23
 32a:	48 07       	cpc	r20, r24
 32c:	ab 07       	cpc	r26, r27
 32e:	b0 e8       	ldi	r27, 0x80	; 128
 330:	09 f0       	breq	.+2      	; 0x334 <__divsf3_pse+0x56>
 332:	bb 0b       	sbc	r27, r27
 334:	80 2d       	mov	r24, r0
 336:	bf 01       	movw	r22, r30
 338:	ff 27       	eor	r31, r31
 33a:	93 58       	subi	r25, 0x83	; 131
 33c:	5f 4f       	sbci	r21, 0xFF	; 255
 33e:	3a f0       	brmi	.+14     	; 0x34e <__divsf3_pse+0x70>
 340:	9e 3f       	cpi	r25, 0xFE	; 254
 342:	51 05       	cpc	r21, r1
 344:	78 f0       	brcs	.+30     	; 0x364 <__divsf3_pse+0x86>
 346:	0c 94 07 02 	jmp	0x40e	; 0x40e <__fp_inf>
 34a:	0c 94 52 02 	jmp	0x4a4	; 0x4a4 <__fp_szero>
 34e:	5f 3f       	cpi	r21, 0xFF	; 255
 350:	e4 f3       	brlt	.-8      	; 0x34a <__divsf3_pse+0x6c>
 352:	98 3e       	cpi	r25, 0xE8	; 232
 354:	d4 f3       	brlt	.-12     	; 0x34a <__divsf3_pse+0x6c>
 356:	86 95       	lsr	r24
 358:	77 95       	ror	r23
 35a:	67 95       	ror	r22
 35c:	b7 95       	ror	r27
 35e:	f7 95       	ror	r31
 360:	9f 5f       	subi	r25, 0xFF	; 255
 362:	c9 f7       	brne	.-14     	; 0x356 <__divsf3_pse+0x78>
 364:	88 0f       	add	r24, r24
 366:	91 1d       	adc	r25, r1
 368:	96 95       	lsr	r25
 36a:	87 95       	ror	r24
 36c:	97 f9       	bld	r25, 7
 36e:	08 95       	ret
 370:	e1 e0       	ldi	r30, 0x01	; 1
 372:	66 0f       	add	r22, r22
 374:	77 1f       	adc	r23, r23
 376:	88 1f       	adc	r24, r24
 378:	bb 1f       	adc	r27, r27
 37a:	62 17       	cp	r22, r18
 37c:	73 07       	cpc	r23, r19
 37e:	84 07       	cpc	r24, r20
 380:	ba 07       	cpc	r27, r26
 382:	20 f0       	brcs	.+8      	; 0x38c <__divsf3_pse+0xae>
 384:	62 1b       	sub	r22, r18
 386:	73 0b       	sbc	r23, r19
 388:	84 0b       	sbc	r24, r20
 38a:	ba 0b       	sbc	r27, r26
 38c:	ee 1f       	adc	r30, r30
 38e:	88 f7       	brcc	.-30     	; 0x372 <__divsf3_pse+0x94>
 390:	e0 95       	com	r30
 392:	08 95       	ret

00000394 <__floatunsisf>:
 394:	e8 94       	clt
 396:	09 c0       	rjmp	.+18     	; 0x3aa <__floatsisf+0x12>

00000398 <__floatsisf>:
 398:	97 fb       	bst	r25, 7
 39a:	3e f4       	brtc	.+14     	; 0x3aa <__floatsisf+0x12>
 39c:	90 95       	com	r25
 39e:	80 95       	com	r24
 3a0:	70 95       	com	r23
 3a2:	61 95       	neg	r22
 3a4:	7f 4f       	sbci	r23, 0xFF	; 255
 3a6:	8f 4f       	sbci	r24, 0xFF	; 255
 3a8:	9f 4f       	sbci	r25, 0xFF	; 255
 3aa:	99 23       	and	r25, r25
 3ac:	a9 f0       	breq	.+42     	; 0x3d8 <__floatsisf+0x40>
 3ae:	f9 2f       	mov	r31, r25
 3b0:	96 e9       	ldi	r25, 0x96	; 150
 3b2:	bb 27       	eor	r27, r27
 3b4:	93 95       	inc	r25
 3b6:	f6 95       	lsr	r31
 3b8:	87 95       	ror	r24
 3ba:	77 95       	ror	r23
 3bc:	67 95       	ror	r22
 3be:	b7 95       	ror	r27
 3c0:	f1 11       	cpse	r31, r1
 3c2:	f8 cf       	rjmp	.-16     	; 0x3b4 <__floatsisf+0x1c>
 3c4:	fa f4       	brpl	.+62     	; 0x404 <__DATA_REGION_LENGTH__+0x4>
 3c6:	bb 0f       	add	r27, r27
 3c8:	11 f4       	brne	.+4      	; 0x3ce <__floatsisf+0x36>
 3ca:	60 ff       	sbrs	r22, 0
 3cc:	1b c0       	rjmp	.+54     	; 0x404 <__DATA_REGION_LENGTH__+0x4>
 3ce:	6f 5f       	subi	r22, 0xFF	; 255
 3d0:	7f 4f       	sbci	r23, 0xFF	; 255
 3d2:	8f 4f       	sbci	r24, 0xFF	; 255
 3d4:	9f 4f       	sbci	r25, 0xFF	; 255
 3d6:	16 c0       	rjmp	.+44     	; 0x404 <__DATA_REGION_LENGTH__+0x4>
 3d8:	88 23       	and	r24, r24
 3da:	11 f0       	breq	.+4      	; 0x3e0 <__floatsisf+0x48>
 3dc:	96 e9       	ldi	r25, 0x96	; 150
 3de:	11 c0       	rjmp	.+34     	; 0x402 <__DATA_REGION_LENGTH__+0x2>
 3e0:	77 23       	and	r23, r23
 3e2:	21 f0       	breq	.+8      	; 0x3ec <__floatsisf+0x54>
 3e4:	9e e8       	ldi	r25, 0x8E	; 142
 3e6:	87 2f       	mov	r24, r23
 3e8:	76 2f       	mov	r23, r22
 3ea:	05 c0       	rjmp	.+10     	; 0x3f6 <__floatsisf+0x5e>
 3ec:	66 23       	and	r22, r22
 3ee:	71 f0       	breq	.+28     	; 0x40c <__DATA_REGION_LENGTH__+0xc>
 3f0:	96 e8       	ldi	r25, 0x86	; 134
 3f2:	86 2f       	mov	r24, r22
 3f4:	70 e0       	ldi	r23, 0x00	; 0
 3f6:	60 e0       	ldi	r22, 0x00	; 0
 3f8:	2a f0       	brmi	.+10     	; 0x404 <__DATA_REGION_LENGTH__+0x4>
 3fa:	9a 95       	dec	r25
 3fc:	66 0f       	add	r22, r22
 3fe:	77 1f       	adc	r23, r23
 400:	88 1f       	adc	r24, r24
 402:	da f7       	brpl	.-10     	; 0x3fa <__floatsisf+0x62>
 404:	88 0f       	add	r24, r24
 406:	96 95       	lsr	r25
 408:	87 95       	ror	r24
 40a:	97 f9       	bld	r25, 7
 40c:	08 95       	ret

0000040e <__fp_inf>:
 40e:	97 f9       	bld	r25, 7
 410:	9f 67       	ori	r25, 0x7F	; 127
 412:	80 e8       	ldi	r24, 0x80	; 128
 414:	70 e0       	ldi	r23, 0x00	; 0
 416:	60 e0       	ldi	r22, 0x00	; 0
 418:	08 95       	ret

0000041a <__fp_nan>:
 41a:	9f ef       	ldi	r25, 0xFF	; 255
 41c:	80 ec       	ldi	r24, 0xC0	; 192
 41e:	08 95       	ret

00000420 <__fp_pscA>:
 420:	00 24       	eor	r0, r0
 422:	0a 94       	dec	r0
 424:	16 16       	cp	r1, r22
 426:	17 06       	cpc	r1, r23
 428:	18 06       	cpc	r1, r24
 42a:	09 06       	cpc	r0, r25
 42c:	08 95       	ret

0000042e <__fp_pscB>:
 42e:	00 24       	eor	r0, r0
 430:	0a 94       	dec	r0
 432:	12 16       	cp	r1, r18
 434:	13 06       	cpc	r1, r19
 436:	14 06       	cpc	r1, r20
 438:	05 06       	cpc	r0, r21
 43a:	08 95       	ret

0000043c <__fp_round>:
 43c:	09 2e       	mov	r0, r25
 43e:	03 94       	inc	r0
 440:	00 0c       	add	r0, r0
 442:	11 f4       	brne	.+4      	; 0x448 <__fp_round+0xc>
 444:	88 23       	and	r24, r24
 446:	52 f0       	brmi	.+20     	; 0x45c <__fp_round+0x20>
 448:	bb 0f       	add	r27, r27
 44a:	40 f4       	brcc	.+16     	; 0x45c <__fp_round+0x20>
 44c:	bf 2b       	or	r27, r31
 44e:	11 f4       	brne	.+4      	; 0x454 <__fp_round+0x18>
 450:	60 ff       	sbrs	r22, 0
 452:	04 c0       	rjmp	.+8      	; 0x45c <__fp_round+0x20>
 454:	6f 5f       	subi	r22, 0xFF	; 255
 456:	7f 4f       	sbci	r23, 0xFF	; 255
 458:	8f 4f       	sbci	r24, 0xFF	; 255
 45a:	9f 4f       	sbci	r25, 0xFF	; 255
 45c:	08 95       	ret

0000045e <__fp_split3>:
 45e:	57 fd       	sbrc	r21, 7
 460:	90 58       	subi	r25, 0x80	; 128
 462:	44 0f       	add	r20, r20
 464:	55 1f       	adc	r21, r21
 466:	59 f0       	breq	.+22     	; 0x47e <__fp_splitA+0x10>
 468:	5f 3f       	cpi	r21, 0xFF	; 255
 46a:	71 f0       	breq	.+28     	; 0x488 <__fp_splitA+0x1a>
 46c:	47 95       	ror	r20

0000046e <__fp_splitA>:
 46e:	88 0f       	add	r24, r24
 470:	97 fb       	bst	r25, 7
 472:	99 1f       	adc	r25, r25
 474:	61 f0       	breq	.+24     	; 0x48e <__fp_splitA+0x20>
 476:	9f 3f       	cpi	r25, 0xFF	; 255
 478:	79 f0       	breq	.+30     	; 0x498 <__fp_splitA+0x2a>
 47a:	87 95       	ror	r24
 47c:	08 95       	ret
 47e:	12 16       	cp	r1, r18
 480:	13 06       	cpc	r1, r19
 482:	14 06       	cpc	r1, r20
 484:	55 1f       	adc	r21, r21
 486:	f2 cf       	rjmp	.-28     	; 0x46c <__stack+0xd>
 488:	46 95       	lsr	r20
 48a:	f1 df       	rcall	.-30     	; 0x46e <__fp_splitA>
 48c:	08 c0       	rjmp	.+16     	; 0x49e <__fp_splitA+0x30>
 48e:	16 16       	cp	r1, r22
 490:	17 06       	cpc	r1, r23
 492:	18 06       	cpc	r1, r24
 494:	99 1f       	adc	r25, r25
 496:	f1 cf       	rjmp	.-30     	; 0x47a <__fp_splitA+0xc>
 498:	86 95       	lsr	r24
 49a:	71 05       	cpc	r23, r1
 49c:	61 05       	cpc	r22, r1
 49e:	08 94       	sec
 4a0:	08 95       	ret

000004a2 <__fp_zero>:
 4a2:	e8 94       	clt

000004a4 <__fp_szero>:
 4a4:	bb 27       	eor	r27, r27
 4a6:	66 27       	eor	r22, r22
 4a8:	77 27       	eor	r23, r23
 4aa:	cb 01       	movw	r24, r22
 4ac:	97 f9       	bld	r25, 7
 4ae:	08 95       	ret

000004b0 <__mulsf3>:
 4b0:	0e 94 6b 02 	call	0x4d6	; 0x4d6 <__mulsf3x>
 4b4:	0c 94 1e 02 	jmp	0x43c	; 0x43c <__fp_round>
 4b8:	0e 94 10 02 	call	0x420	; 0x420 <__fp_pscA>
 4bc:	38 f0       	brcs	.+14     	; 0x4cc <__mulsf3+0x1c>
 4be:	0e 94 17 02 	call	0x42e	; 0x42e <__fp_pscB>
 4c2:	20 f0       	brcs	.+8      	; 0x4cc <__mulsf3+0x1c>
 4c4:	95 23       	and	r25, r21
 4c6:	11 f0       	breq	.+4      	; 0x4cc <__mulsf3+0x1c>
 4c8:	0c 94 07 02 	jmp	0x40e	; 0x40e <__fp_inf>
 4cc:	0c 94 0d 02 	jmp	0x41a	; 0x41a <__fp_nan>
 4d0:	11 24       	eor	r1, r1
 4d2:	0c 94 52 02 	jmp	0x4a4	; 0x4a4 <__fp_szero>

000004d6 <__mulsf3x>:
 4d6:	0e 94 2f 02 	call	0x45e	; 0x45e <__fp_split3>
 4da:	70 f3       	brcs	.-36     	; 0x4b8 <__mulsf3+0x8>

000004dc <__mulsf3_pse>:
 4dc:	95 9f       	mul	r25, r21
 4de:	c1 f3       	breq	.-16     	; 0x4d0 <__mulsf3+0x20>
 4e0:	95 0f       	add	r25, r21
 4e2:	50 e0       	ldi	r21, 0x00	; 0
 4e4:	55 1f       	adc	r21, r21
 4e6:	62 9f       	mul	r22, r18
 4e8:	f0 01       	movw	r30, r0
 4ea:	72 9f       	mul	r23, r18
 4ec:	bb 27       	eor	r27, r27
 4ee:	f0 0d       	add	r31, r0
 4f0:	b1 1d       	adc	r27, r1
 4f2:	63 9f       	mul	r22, r19
 4f4:	aa 27       	eor	r26, r26
 4f6:	f0 0d       	add	r31, r0
 4f8:	b1 1d       	adc	r27, r1
 4fa:	aa 1f       	adc	r26, r26
 4fc:	64 9f       	mul	r22, r20
 4fe:	66 27       	eor	r22, r22
 500:	b0 0d       	add	r27, r0
 502:	a1 1d       	adc	r26, r1
 504:	66 1f       	adc	r22, r22
 506:	82 9f       	mul	r24, r18
 508:	22 27       	eor	r18, r18
 50a:	b0 0d       	add	r27, r0
 50c:	a1 1d       	adc	r26, r1
 50e:	62 1f       	adc	r22, r18
 510:	73 9f       	mul	r23, r19
 512:	b0 0d       	add	r27, r0
 514:	a1 1d       	adc	r26, r1
 516:	62 1f       	adc	r22, r18
 518:	83 9f       	mul	r24, r19
 51a:	a0 0d       	add	r26, r0
 51c:	61 1d       	adc	r22, r1
 51e:	22 1f       	adc	r18, r18
 520:	74 9f       	mul	r23, r20
 522:	33 27       	eor	r19, r19
 524:	a0 0d       	add	r26, r0
 526:	61 1d       	adc	r22, r1
 528:	23 1f       	adc	r18, r19
 52a:	84 9f       	mul	r24, r20
 52c:	60 0d       	add	r22, r0
 52e:	21 1d       	adc	r18, r1
 530:	82 2f       	mov	r24, r18
 532:	76 2f       	mov	r23, r22
 534:	6a 2f       	mov	r22, r26
 536:	11 24       	eor	r1, r1
 538:	9f 57       	subi	r25, 0x7F	; 127
 53a:	50 40       	sbci	r21, 0x00	; 0
 53c:	9a f0       	brmi	.+38     	; 0x564 <__mulsf3_pse+0x88>
 53e:	f1 f0       	breq	.+60     	; 0x57c <__mulsf3_pse+0xa0>
 540:	88 23       	and	r24, r24
 542:	4a f0       	brmi	.+18     	; 0x556 <__mulsf3_pse+0x7a>
 544:	ee 0f       	add	r30, r30
 546:	ff 1f       	adc	r31, r31
 548:	bb 1f       	adc	r27, r27
 54a:	66 1f       	adc	r22, r22
 54c:	77 1f       	adc	r23, r23
 54e:	88 1f       	adc	r24, r24
 550:	91 50       	subi	r25, 0x01	; 1
 552:	50 40       	sbci	r21, 0x00	; 0
 554:	a9 f7       	brne	.-22     	; 0x540 <__mulsf3_pse+0x64>
 556:	9e 3f       	cpi	r25, 0xFE	; 254
 558:	51 05       	cpc	r21, r1
 55a:	80 f0       	brcs	.+32     	; 0x57c <__mulsf3_pse+0xa0>
 55c:	0c 94 07 02 	jmp	0x40e	; 0x40e <__fp_inf>
 560:	0c 94 52 02 	jmp	0x4a4	; 0x4a4 <__fp_szero>
 564:	5f 3f       	cpi	r21, 0xFF	; 255
 566:	e4 f3       	brlt	.-8      	; 0x560 <__mulsf3_pse+0x84>
 568:	98 3e       	cpi	r25, 0xE8	; 232
 56a:	d4 f3       	brlt	.-12     	; 0x560 <__mulsf3_pse+0x84>
 56c:	86 95       	lsr	r24
 56e:	77 95       	ror	r23
 570:	67 95       	ror	r22
 572:	b7 95       	ror	r27
 574:	f7 95       	ror	r31
 576:	e7 95       	ror	r30
 578:	9f 5f       	subi	r25, 0xFF	; 255
 57a:	c1 f7       	brne	.-16     	; 0x56c <__mulsf3_pse+0x90>
 57c:	fe 2b       	or	r31, r30
 57e:	88 0f       	add	r24, r24
 580:	91 1d       	adc	r25, r1
 582:	96 95       	lsr	r25
 584:	87 95       	ror	r24
 586:	97 f9       	bld	r25, 7
 588:	08 95       	ret

0000058a <_exit>:
 58a:	f8 94       	cli

0000058c <__stop_program>:
 58c:	ff cf       	rjmp	.-2      	; 0x58c <__stop_program>
