
ElecHeatsoftware.elf:     file format elf32-avr

Sections:
Idx Name          Size      VMA       LMA       File off  Algn
  0 .text         00000eb6  00000000  00000000  00000074  2**1
                  CONTENTS, ALLOC, LOAD, READONLY, CODE
  1 .data         00000000  00800060  00800060  00000f2a  2**0
                  CONTENTS, ALLOC, LOAD, DATA
  2 .bss          0000001a  00800060  00800060  00000f2a  2**0
                  ALLOC
  3 .comment      00000030  00000000  00000000  00000f2a  2**0
                  CONTENTS, READONLY
  4 .note.gnu.avr.deviceinfo 0000003c  00000000  00000000  00000f5c  2**2
                  CONTENTS, READONLY
  5 .debug_info   0000052e  00000000  00000000  00000f98  2**0
                  CONTENTS, READONLY, DEBUGGING
  6 .debug_abbrev 000004e7  00000000  00000000  000014c6  2**0
                  CONTENTS, READONLY, DEBUGGING
  7 .debug_line   00000116  00000000  00000000  000019ad  2**0
                  CONTENTS, READONLY, DEBUGGING
  8 .debug_str    000001af  00000000  00000000  00001ac3  2**0
                  CONTENTS, READONLY, DEBUGGING

Disassembly of section .text:

00000000 <__vectors>:
   0:	0c 94 7d 00 	jmp	0xfa	; 0xfa <__ctors_end>
   4:	0c 94 8f 00 	jmp	0x11e	; 0x11e <__bad_interrupt>
   8:	0c 94 8f 00 	jmp	0x11e	; 0x11e <__bad_interrupt>
   c:	0c 94 8f 00 	jmp	0x11e	; 0x11e <__bad_interrupt>
  10:	0c 94 8f 00 	jmp	0x11e	; 0x11e <__bad_interrupt>
  14:	0c 94 8f 00 	jmp	0x11e	; 0x11e <__bad_interrupt>
  18:	0c 94 8f 00 	jmp	0x11e	; 0x11e <__bad_interrupt>
  1c:	0c 94 8f 00 	jmp	0x11e	; 0x11e <__bad_interrupt>
  20:	0c 94 95 01 	jmp	0x32a	; 0x32a <__vector_8>
  24:	0c 94 8f 00 	jmp	0x11e	; 0x11e <__bad_interrupt>
  28:	0c 94 8f 00 	jmp	0x11e	; 0x11e <__bad_interrupt>
  2c:	0c 94 8f 00 	jmp	0x11e	; 0x11e <__bad_interrupt>
  30:	0c 94 8f 00 	jmp	0x11e	; 0x11e <__bad_interrupt>
  34:	0c 94 8f 00 	jmp	0x11e	; 0x11e <__bad_interrupt>
  38:	0c 94 8f 00 	jmp	0x11e	; 0x11e <__bad_interrupt>
  3c:	0c 94 8f 00 	jmp	0x11e	; 0x11e <__bad_interrupt>
  40:	0c 94 8f 00 	jmp	0x11e	; 0x11e <__bad_interrupt>
  44:	0c 94 8f 00 	jmp	0x11e	; 0x11e <__bad_interrupt>
  48:	0c 94 8f 00 	jmp	0x11e	; 0x11e <__bad_interrupt>
  4c:	0c 94 8f 00 	jmp	0x11e	; 0x11e <__bad_interrupt>
  50:	0c 94 8f 00 	jmp	0x11e	; 0x11e <__bad_interrupt>
  54:	04 02       	muls	r16, r20
  56:	02 02       	muls	r16, r18
  58:	fe 01       	movw	r30, r28
  5a:	fa 01       	movw	r30, r20
  5c:	f6 01       	movw	r30, r12
  5e:	00 02       	muls	r16, r16
  60:	f4 01       	movw	r30, r8
  62:	f8 01       	movw	r30, r16
  64:	fc 01       	movw	r30, r24
  66:	96 02       	muls	r25, r22
  68:	8f 02       	muls	r24, r31
  6a:	81 02       	muls	r24, r17
  6c:	73 02       	muls	r23, r19
  6e:	65 02       	muls	r22, r21
  70:	88 02       	muls	r24, r24
  72:	5e 02       	muls	r21, r30
  74:	6c 02       	muls	r22, r28
  76:	7a 02       	muls	r23, r26
  78:	07 63       	ori	r16, 0x37	; 55
  7a:	42 36       	cpi	r20, 0x62	; 98
  7c:	b7 9b       	sbis	0x16, 7	; 22
  7e:	d8 a7       	std	Y+40, r29	; 0x28
  80:	1a 39       	cpi	r17, 0x9A	; 154
  82:	68 56       	subi	r22, 0x68	; 104
  84:	18 ae       	std	Y+56, r1	; 0x38
  86:	ba ab       	std	Y+50, r27	; 0x32
  88:	55 8c       	ldd	r5, Z+29	; 0x1d
  8a:	1d 3c       	cpi	r17, 0xCD	; 205
  8c:	b7 cc       	rjmp	.-1682   	; 0xfffff9fc <__eeprom_end+0xff7ef9fc>
  8e:	57 63       	ori	r21, 0x37	; 55
  90:	bd 6d       	ori	r27, 0xDD	; 221
  92:	ed fd       	.word	0xfded	; ????
  94:	75 3e       	cpi	r23, 0xE5	; 229
  96:	f6 17       	cp	r31, r22
  98:	72 31       	cpi	r23, 0x12	; 18
  9a:	bf 00       	.word	0x00bf	; ????
  9c:	00 00       	nop
  9e:	80 3f       	cpi	r24, 0xF0	; 240
  a0:	08 00       	.word	0x0008	; ????
  a2:	00 00       	nop
  a4:	be 92       	st	-X, r11
  a6:	24 49       	sbci	r18, 0x94	; 148
  a8:	12 3e       	cpi	r17, 0xE2	; 226
  aa:	ab aa       	std	Y+51, r10	; 0x33
  ac:	aa 2a       	or	r10, r26
  ae:	be cd       	rjmp	.-1156   	; 0xfffffc2c <__eeprom_end+0xff7efc2c>
  b0:	cc cc       	rjmp	.-1640   	; 0xfffffa4a <__eeprom_end+0xff7efa4a>
  b2:	4c 3e       	cpi	r20, 0xEC	; 236
  b4:	00 00       	nop
  b6:	00 80       	ld	r0, Z
  b8:	be ab       	std	Y+54, r27	; 0x36
  ba:	aa aa       	std	Y+50, r10	; 0x32
  bc:	aa 3e       	cpi	r26, 0xEA	; 234
  be:	00 00       	nop
  c0:	00 00       	nop
  c2:	bf 00       	.word	0x00bf	; ????
  c4:	00 00       	nop
  c6:	80 3f       	cpi	r24, 0xF0	; 240
  c8:	00 00       	nop
  ca:	00 00       	nop
  cc:	00 08       	sbc	r0, r0
  ce:	41 78       	andi	r20, 0x81	; 129
  d0:	d3 bb       	out	0x13, r29	; 19
  d2:	43 87       	std	Z+11, r20	; 0x0b
  d4:	d1 13       	cpse	r29, r17
  d6:	3d 19       	sub	r19, r13
  d8:	0e 3c       	cpi	r16, 0xCE	; 206
  da:	c3 bd       	out	0x23, r28	; 35
  dc:	42 82       	std	Z+2, r4	; 0x02
  de:	ad 2b       	or	r26, r29
  e0:	3e 68       	ori	r19, 0x8E	; 142
  e2:	ec 82       	std	Y+4, r14	; 0x04
  e4:	76 be       	out	0x36, r7	; 54
  e6:	d9 8f       	std	Y+25, r29	; 0x19
  e8:	e1 a9       	ldd	r30, Z+49	; 0x31
  ea:	3e 4c       	sbci	r19, 0xCE	; 206
  ec:	80 ef       	ldi	r24, 0xF0	; 240
  ee:	ff be       	out	0x3f, r15	; 63
  f0:	01 c4       	rjmp	.+2050   	; 0x8f4 <__fixunssfsi+0x3c>
  f2:	ff 7f       	andi	r31, 0xFF	; 255
  f4:	3f 00       	.word	0x003f	; ????
  f6:	00 00       	nop
	...

000000fa <__ctors_end>:
  fa:	11 24       	eor	r1, r1
  fc:	1f be       	out	0x3f, r1	; 63
  fe:	cf e5       	ldi	r28, 0x5F	; 95
 100:	d4 e0       	ldi	r29, 0x04	; 4
 102:	de bf       	out	0x3e, r29	; 62
 104:	cd bf       	out	0x3d, r28	; 61

00000106 <__do_clear_bss>:
 106:	20 e0       	ldi	r18, 0x00	; 0
 108:	a0 e6       	ldi	r26, 0x60	; 96
 10a:	b0 e0       	ldi	r27, 0x00	; 0
 10c:	01 c0       	rjmp	.+2      	; 0x110 <.do_clear_bss_start>

0000010e <.do_clear_bss_loop>:
 10e:	1d 92       	st	X+, r1

00000110 <.do_clear_bss_start>:
 110:	aa 37       	cpi	r26, 0x7A	; 122
 112:	b2 07       	cpc	r27, r18
 114:	e1 f7       	brne	.-8      	; 0x10e <.do_clear_bss_loop>
 116:	0e 94 da 02 	call	0x5b4	; 0x5b4 <main>
 11a:	0c 94 59 07 	jmp	0xeb2	; 0xeb2 <_exit>

0000011e <__bad_interrupt>:
 11e:	0c 94 00 00 	jmp	0	; 0x0 <__vectors>

00000122 <ADC_init>:
 122:	17 b8       	out	0x07, r1	; 7
 124:	83 e8       	ldi	r24, 0x83	; 131
 126:	86 b9       	out	0x06, r24	; 6
 128:	08 95       	ret

0000012a <ADC_readChannel>:
 12a:	97 b1       	in	r25, 0x07	; 7
 12c:	90 7e       	andi	r25, 0xE0	; 224
 12e:	97 b9       	out	0x07, r25	; 7
 130:	97 b1       	in	r25, 0x07	; 7
 132:	89 2b       	or	r24, r25
 134:	87 b9       	out	0x07, r24	; 7
 136:	36 9a       	sbi	0x06, 6	; 6
 138:	34 9b       	sbis	0x06, 4	; 6
 13a:	fe cf       	rjmp	.-4      	; 0x138 <ADC_readChannel+0xe>
 13c:	34 9a       	sbi	0x06, 4	; 6
 13e:	84 b1       	in	r24, 0x04	; 4
 140:	95 b1       	in	r25, 0x05	; 5
 142:	08 95       	ret

00000144 <on_off_7_segment.part.1>:
 144:	c0 98       	cbi	0x18, 0	; 24
 146:	df 98       	cbi	0x1b, 7	; 27
 148:	08 95       	ret

0000014a <DATA_DIRECTION_REGISTER>:
 14a:	88 9a       	sbi	0x11, 0	; 17
 14c:	89 9a       	sbi	0x11, 1	; 17
 14e:	8a 9a       	sbi	0x11, 2	; 17
 150:	8b 9a       	sbi	0x11, 3	; 17
 152:	8c 9a       	sbi	0x11, 4	; 17
 154:	8d 9a       	sbi	0x11, 5	; 17
 156:	8e 9a       	sbi	0x11, 6	; 17
 158:	8f 9a       	sbi	0x11, 7	; 17
 15a:	b8 9a       	sbi	0x17, 0	; 23
 15c:	d7 9a       	sbi	0x1a, 7	; 26
 15e:	bd 9a       	sbi	0x17, 5	; 23
 160:	be 9a       	sbi	0x17, 6	; 23
 162:	bc 9a       	sbi	0x17, 4	; 23
 164:	bb 98       	cbi	0x17, 3	; 23
 166:	ba 98       	cbi	0x17, 2	; 23
 168:	b9 98       	cbi	0x17, 1	; 23
 16a:	08 95       	ret

0000016c <I2C_Init>:
 16c:	11 b8       	out	0x01, r1	; 1
 16e:	61 b1       	in	r22, 0x01	; 1
 170:	63 70       	andi	r22, 0x03	; 3
 172:	70 e0       	ldi	r23, 0x00	; 0
 174:	80 e0       	ldi	r24, 0x00	; 0
 176:	90 e0       	ldi	r25, 0x00	; 0
 178:	0e 94 8d 04 	call	0x91a	; 0x91a <__floatsisf>
 17c:	9b 01       	movw	r18, r22
 17e:	ac 01       	movw	r20, r24
 180:	60 e0       	ldi	r22, 0x00	; 0
 182:	70 e0       	ldi	r23, 0x00	; 0
 184:	80 e8       	ldi	r24, 0x80	; 128
 186:	90 e4       	ldi	r25, 0x40	; 64
 188:	0e 94 aa 05 	call	0xb54	; 0xb54 <pow>
 18c:	9b 01       	movw	r18, r22
 18e:	ac 01       	movw	r20, r24
 190:	0e 94 79 03 	call	0x6f2	; 0x6f2 <__addsf3>
 194:	9b 01       	movw	r18, r22
 196:	ac 01       	movw	r20, r24
 198:	60 e0       	ldi	r22, 0x00	; 0
 19a:	70 e0       	ldi	r23, 0x00	; 0
 19c:	80 e8       	ldi	r24, 0x80	; 128
 19e:	9f e4       	ldi	r25, 0x4F	; 79
 1a0:	0e 94 ea 03 	call	0x7d4	; 0x7d4 <__divsf3>
 1a4:	0e 94 5c 04 	call	0x8b8	; 0x8b8 <__fixunssfsi>
 1a8:	60 b9       	out	0x00, r22	; 0
 1aa:	08 95       	ret

000001ac <I2C_Repeated_Start>:
 1ac:	94 ea       	ldi	r25, 0xA4	; 164
 1ae:	96 bf       	out	0x36, r25	; 54
 1b0:	06 b6       	in	r0, 0x36	; 54
 1b2:	07 fe       	sbrs	r0, 7
 1b4:	fd cf       	rjmp	.-6      	; 0x1b0 <I2C_Repeated_Start+0x4>
 1b6:	83 b9       	out	0x03, r24	; 3
 1b8:	84 e8       	ldi	r24, 0x84	; 132
 1ba:	86 bf       	out	0x36, r24	; 54
 1bc:	06 b6       	in	r0, 0x36	; 54
 1be:	07 fe       	sbrs	r0, 7
 1c0:	fd cf       	rjmp	.-6      	; 0x1bc <I2C_Repeated_Start+0x10>
 1c2:	80 e0       	ldi	r24, 0x00	; 0
 1c4:	08 95       	ret

000001c6 <I2C_Read_Nack>:
 1c6:	84 e8       	ldi	r24, 0x84	; 132
 1c8:	86 bf       	out	0x36, r24	; 54
 1ca:	06 b6       	in	r0, 0x36	; 54
 1cc:	07 fe       	sbrs	r0, 7
 1ce:	fd cf       	rjmp	.-6      	; 0x1ca <I2C_Read_Nack+0x4>
 1d0:	83 b1       	in	r24, 0x03	; 3
 1d2:	08 95       	ret

000001d4 <I2C_Stop>:
 1d4:	84 e9       	ldi	r24, 0x94	; 148
 1d6:	86 bf       	out	0x36, r24	; 54
 1d8:	86 b7       	in	r24, 0x36	; 54
 1da:	08 95       	ret

000001dc <decimal_to_bcd>:
 1dc:	6a e0       	ldi	r22, 0x0A	; 10
 1de:	0e 94 2f 07 	call	0xe5e	; 0xe5e <__udivmodqi4>
 1e2:	20 e1       	ldi	r18, 0x10	; 16
 1e4:	82 9f       	mul	r24, r18
 1e6:	90 0d       	add	r25, r0
 1e8:	11 24       	eor	r1, r1
 1ea:	89 2f       	mov	r24, r25
 1ec:	08 95       	ret

000001ee <I2C_Write>:
 1ee:	0e 94 ee 00 	call	0x1dc	; 0x1dc <decimal_to_bcd>
 1f2:	83 b9       	out	0x03, r24	; 3
 1f4:	84 e8       	ldi	r24, 0x84	; 132
 1f6:	86 bf       	out	0x36, r24	; 54
 1f8:	06 b6       	in	r0, 0x36	; 54
 1fa:	07 fe       	sbrs	r0, 7
 1fc:	fd cf       	rjmp	.-6      	; 0x1f8 <I2C_Write+0xa>
 1fe:	08 95       	ret

00000200 <EEPROM_write_read>:
 200:	cf 93       	push	r28
 202:	c8 2f       	mov	r28, r24
 204:	0e 94 b6 00 	call	0x16c	; 0x16c <I2C_Init>
 208:	80 ea       	ldi	r24, 0xA0	; 160
 20a:	0e 94 d6 00 	call	0x1ac	; 0x1ac <I2C_Repeated_Start>
 20e:	8c 2f       	mov	r24, r28
 210:	0e 94 f7 00 	call	0x1ee	; 0x1ee <I2C_Write>
 214:	81 ea       	ldi	r24, 0xA1	; 161
 216:	0e 94 d6 00 	call	0x1ac	; 0x1ac <I2C_Repeated_Start>
 21a:	0e 94 e3 00 	call	0x1c6	; 0x1c6 <I2C_Read_Nack>
 21e:	c8 2f       	mov	r28, r24
 220:	0e 94 ea 00 	call	0x1d4	; 0x1d4 <I2C_Stop>
 224:	8c 2f       	mov	r24, r28
 226:	cf 91       	pop	r28
 228:	08 95       	ret

0000022a <INT_interrupt>:
 22a:	84 e6       	ldi	r24, 0x64	; 100
 22c:	9f ef       	ldi	r25, 0xFF	; 255
 22e:	9d bd       	out	0x2d, r25	; 45
 230:	8c bd       	out	0x2c, r24	; 44
 232:	1f bc       	out	0x2f, r1	; 47
 234:	85 e0       	ldi	r24, 0x05	; 5
 236:	8e bd       	out	0x2e, r24	; 46
 238:	84 e0       	ldi	r24, 0x04	; 4
 23a:	89 bf       	out	0x39, r24	; 57
 23c:	78 94       	sei
 23e:	08 95       	ret

00000240 <Avg_reading>:
 240:	60 91 74 00 	lds	r22, 0x0074	; 0x800074 <x>
 244:	70 91 75 00 	lds	r23, 0x0075	; 0x800075 <x+0x1>
 248:	80 91 76 00 	lds	r24, 0x0076	; 0x800076 <x+0x2>
 24c:	90 91 77 00 	lds	r25, 0x0077	; 0x800077 <x+0x3>
 250:	20 91 6c 00 	lds	r18, 0x006C	; 0x80006c <sum>
 254:	30 91 6d 00 	lds	r19, 0x006D	; 0x80006d <sum+0x1>
 258:	40 91 6e 00 	lds	r20, 0x006E	; 0x80006e <sum+0x2>
 25c:	50 91 6f 00 	lds	r21, 0x006F	; 0x80006f <sum+0x3>
 260:	0e 94 79 03 	call	0x6f2	; 0x6f2 <__addsf3>
 264:	60 93 6c 00 	sts	0x006C, r22	; 0x80006c <sum>
 268:	70 93 6d 00 	sts	0x006D, r23	; 0x80006d <sum+0x1>
 26c:	80 93 6e 00 	sts	0x006E, r24	; 0x80006e <sum+0x2>
 270:	90 93 6f 00 	sts	0x006F, r25	; 0x80006f <sum+0x3>
 274:	20 91 69 00 	lds	r18, 0x0069	; 0x800069 <i>
 278:	2f 5f       	subi	r18, 0xFF	; 255
 27a:	20 93 69 00 	sts	0x0069, r18	; 0x800069 <i>
 27e:	29 30       	cpi	r18, 0x09	; 9
 280:	c1 f4       	brne	.+48     	; 0x2b2 <Avg_reading+0x72>
 282:	24 e1       	ldi	r18, 0x14	; 20
 284:	3e ea       	ldi	r19, 0xAE	; 174
 286:	41 e1       	ldi	r20, 0x11	; 17
 288:	51 e4       	ldi	r21, 0x41	; 65
 28a:	0e 94 ea 03 	call	0x7d4	; 0x7d4 <__divsf3>
 28e:	60 93 70 00 	sts	0x0070, r22	; 0x800070 <average>
 292:	70 93 71 00 	sts	0x0071, r23	; 0x800071 <average+0x1>
 296:	80 93 72 00 	sts	0x0072, r24	; 0x800072 <average+0x2>
 29a:	90 93 73 00 	sts	0x0073, r25	; 0x800073 <average+0x3>
 29e:	10 92 69 00 	sts	0x0069, r1	; 0x800069 <i>
 2a2:	10 92 6c 00 	sts	0x006C, r1	; 0x80006c <sum>
 2a6:	10 92 6d 00 	sts	0x006D, r1	; 0x80006d <sum+0x1>
 2aa:	10 92 6e 00 	sts	0x006E, r1	; 0x80006e <sum+0x2>
 2ae:	10 92 6f 00 	sts	0x006F, r1	; 0x80006f <sum+0x3>
 2b2:	08 95       	ret

000002b4 <Temperature_reading>:
 2b4:	80 e0       	ldi	r24, 0x00	; 0
 2b6:	0e 94 95 00 	call	0x12a	; 0x12a <ADC_readChannel>
 2ba:	90 93 79 00 	sts	0x0079, r25	; 0x800079 <volt+0x1>
 2be:	80 93 78 00 	sts	0x0078, r24	; 0x800078 <volt>
 2c2:	80 91 78 00 	lds	r24, 0x0078	; 0x800078 <volt>
 2c6:	90 91 79 00 	lds	r25, 0x0079	; 0x800079 <volt+0x1>
 2ca:	25 e0       	ldi	r18, 0x05	; 5
 2cc:	28 9f       	mul	r18, r24
 2ce:	b0 01       	movw	r22, r0
 2d0:	29 9f       	mul	r18, r25
 2d2:	70 0d       	add	r23, r0
 2d4:	11 24       	eor	r1, r1
 2d6:	80 e0       	ldi	r24, 0x00	; 0
 2d8:	90 e0       	ldi	r25, 0x00	; 0
 2da:	0e 94 8b 04 	call	0x916	; 0x916 <__floatunsisf>
 2de:	20 e0       	ldi	r18, 0x00	; 0
 2e0:	30 ec       	ldi	r19, 0xC0	; 192
 2e2:	4f e7       	ldi	r20, 0x7F	; 127
 2e4:	54 e4       	ldi	r21, 0x44	; 68
 2e6:	0e 94 ea 03 	call	0x7d4	; 0x7d4 <__divsf3>
 2ea:	60 93 74 00 	sts	0x0074, r22	; 0x800074 <x>
 2ee:	70 93 75 00 	sts	0x0075, r23	; 0x800075 <x+0x1>
 2f2:	80 93 76 00 	sts	0x0076, r24	; 0x800076 <x+0x2>
 2f6:	90 93 77 00 	sts	0x0077, r25	; 0x800077 <x+0x3>
 2fa:	60 91 74 00 	lds	r22, 0x0074	; 0x800074 <x>
 2fe:	70 91 75 00 	lds	r23, 0x0075	; 0x800075 <x+0x1>
 302:	80 91 76 00 	lds	r24, 0x0076	; 0x800076 <x+0x2>
 306:	90 91 77 00 	lds	r25, 0x0077	; 0x800077 <x+0x3>
 30a:	20 e0       	ldi	r18, 0x00	; 0
 30c:	30 e0       	ldi	r19, 0x00	; 0
 30e:	48 ec       	ldi	r20, 0xC8	; 200
 310:	52 e4       	ldi	r21, 0x42	; 66
 312:	0e 94 3d 05 	call	0xa7a	; 0xa7a <__mulsf3>
 316:	60 93 74 00 	sts	0x0074, r22	; 0x800074 <x>
 31a:	70 93 75 00 	sts	0x0075, r23	; 0x800075 <x+0x1>
 31e:	80 93 76 00 	sts	0x0076, r24	; 0x800076 <x+0x2>
 322:	90 93 77 00 	sts	0x0077, r25	; 0x800077 <x+0x3>
 326:	0c 94 20 01 	jmp	0x240	; 0x240 <Avg_reading>

0000032a <__vector_8>:
 32a:	1f 92       	push	r1
 32c:	0f 92       	push	r0
 32e:	0f b6       	in	r0, 0x3f	; 63
 330:	0f 92       	push	r0
 332:	11 24       	eor	r1, r1
 334:	2f 93       	push	r18
 336:	3f 93       	push	r19
 338:	4f 93       	push	r20
 33a:	5f 93       	push	r21
 33c:	6f 93       	push	r22
 33e:	7f 93       	push	r23
 340:	8f 93       	push	r24
 342:	9f 93       	push	r25
 344:	af 93       	push	r26
 346:	bf 93       	push	r27
 348:	ef 93       	push	r30
 34a:	ff 93       	push	r31
 34c:	84 e6       	ldi	r24, 0x64	; 100
 34e:	9f ef       	ldi	r25, 0xFF	; 255
 350:	9d bd       	out	0x2d, r25	; 45
 352:	8c bd       	out	0x2c, r24	; 44
 354:	0e 94 5a 01 	call	0x2b4	; 0x2b4 <Temperature_reading>
 358:	ff 91       	pop	r31
 35a:	ef 91       	pop	r30
 35c:	bf 91       	pop	r27
 35e:	af 91       	pop	r26
 360:	9f 91       	pop	r25
 362:	8f 91       	pop	r24
 364:	7f 91       	pop	r23
 366:	6f 91       	pop	r22
 368:	5f 91       	pop	r21
 36a:	4f 91       	pop	r20
 36c:	3f 91       	pop	r19
 36e:	2f 91       	pop	r18
 370:	0f 90       	pop	r0
 372:	0f be       	out	0x3f, r0	; 63
 374:	0f 90       	pop	r0
 376:	1f 90       	pop	r1
 378:	18 95       	reti

0000037a <setting_temp>:
 37a:	80 91 6a 00 	lds	r24, 0x006A	; 0x80006a <counter>
 37e:	90 91 6b 00 	lds	r25, 0x006B	; 0x80006b <counter+0x1>
 382:	b3 9b       	sbis	0x16, 3	; 22
 384:	05 c0       	rjmp	.+10     	; 0x390 <setting_temp+0x16>
 386:	83 30       	cpi	r24, 0x03	; 3
 388:	91 05       	cpc	r25, r1
 38a:	14 f4       	brge	.+4      	; 0x390 <setting_temp+0x16>
 38c:	01 96       	adiw	r24, 0x01	; 1
 38e:	07 c0       	rjmp	.+14     	; 0x39e <setting_temp+0x24>
 390:	b2 9b       	sbis	0x16, 2	; 22
 392:	0a c0       	rjmp	.+20     	; 0x3a8 <setting_temp+0x2e>
 394:	8c 3f       	cpi	r24, 0xFC	; 252
 396:	2f ef       	ldi	r18, 0xFF	; 255
 398:	92 07       	cpc	r25, r18
 39a:	34 f0       	brlt	.+12     	; 0x3a8 <setting_temp+0x2e>
 39c:	01 97       	sbiw	r24, 0x01	; 1
 39e:	90 93 6b 00 	sts	0x006B, r25	; 0x80006b <counter+0x1>
 3a2:	80 93 6a 00 	sts	0x006A, r24	; 0x80006a <counter>
 3a6:	04 c0       	rjmp	.+8      	; 0x3b0 <setting_temp+0x36>
 3a8:	b3 99       	sbic	0x16, 3	; 22
 3aa:	02 c0       	rjmp	.+4      	; 0x3b0 <setting_temp+0x36>
 3ac:	b2 9b       	sbis	0x16, 2	; 22
 3ae:	10 c0       	rjmp	.+32     	; 0x3d0 <setting_temp+0x56>
 3b0:	10 92 60 00 	sts	0x0060, r1	; 0x800060 <__DATA_REGION_ORIGIN__>
 3b4:	10 92 61 00 	sts	0x0061, r1	; 0x800061 <__DATA_REGION_ORIGIN__+0x1>
 3b8:	10 92 62 00 	sts	0x0062, r1	; 0x800062 <__DATA_REGION_ORIGIN__+0x2>
 3bc:	10 92 63 00 	sts	0x0063, r1	; 0x800063 <__DATA_REGION_ORIGIN__+0x3>
 3c0:	10 92 64 00 	sts	0x0064, r1	; 0x800064 <__DATA_REGION_ORIGIN__+0x4>
 3c4:	10 92 65 00 	sts	0x0065, r1	; 0x800065 <__DATA_REGION_ORIGIN__+0x5>
 3c8:	10 92 66 00 	sts	0x0066, r1	; 0x800066 <__DATA_REGION_ORIGIN__+0x6>
 3cc:	10 92 67 00 	sts	0x0067, r1	; 0x800067 <__DATA_REGION_ORIGIN__+0x7>
 3d0:	e0 91 6a 00 	lds	r30, 0x006A	; 0x80006a <counter>
 3d4:	f0 91 6b 00 	lds	r31, 0x006B	; 0x80006b <counter+0x1>
 3d8:	35 96       	adiw	r30, 0x05	; 5
 3da:	e9 30       	cpi	r30, 0x09	; 9
 3dc:	f1 05       	cpc	r31, r1
 3de:	b0 f4       	brcc	.+44     	; 0x40c <__DATA_REGION_LENGTH__+0xc>
 3e0:	e6 5d       	subi	r30, 0xD6	; 214
 3e2:	ff 4f       	sbci	r31, 0xFF	; 255
 3e4:	0c 94 3b 07 	jmp	0xe76	; 0xe76 <__tablejump2__>
 3e8:	85 e6       	ldi	r24, 0x65	; 101
 3ea:	0f c0       	rjmp	.+30     	; 0x40a <__DATA_REGION_LENGTH__+0xa>
 3ec:	85 e5       	ldi	r24, 0x55	; 85
 3ee:	0d c0       	rjmp	.+26     	; 0x40a <__DATA_REGION_LENGTH__+0xa>
 3f0:	80 e7       	ldi	r24, 0x70	; 112
 3f2:	0b c0       	rjmp	.+22     	; 0x40a <__DATA_REGION_LENGTH__+0xa>
 3f4:	80 e5       	ldi	r24, 0x50	; 80
 3f6:	09 c0       	rjmp	.+18     	; 0x40a <__DATA_REGION_LENGTH__+0xa>
 3f8:	85 e7       	ldi	r24, 0x75	; 117
 3fa:	07 c0       	rjmp	.+14     	; 0x40a <__DATA_REGION_LENGTH__+0xa>
 3fc:	85 e4       	ldi	r24, 0x45	; 69
 3fe:	05 c0       	rjmp	.+10     	; 0x40a <__DATA_REGION_LENGTH__+0xa>
 400:	80 e6       	ldi	r24, 0x60	; 96
 402:	03 c0       	rjmp	.+6      	; 0x40a <__DATA_REGION_LENGTH__+0xa>
 404:	80 e4       	ldi	r24, 0x40	; 64
 406:	01 c0       	rjmp	.+2      	; 0x40a <__DATA_REGION_LENGTH__+0xa>
 408:	85 e3       	ldi	r24, 0x35	; 53
 40a:	82 bb       	out	0x12, r24	; 18
 40c:	80 91 6a 00 	lds	r24, 0x006A	; 0x80006a <counter>
 410:	0c 94 00 01 	jmp	0x200	; 0x200 <EEPROM_write_read>

00000414 <ACTIVATION>:
 414:	cf 92       	push	r12
 416:	df 92       	push	r13
 418:	ef 92       	push	r14
 41a:	ff 92       	push	r15
 41c:	cf 93       	push	r28
 41e:	20 91 6a 00 	lds	r18, 0x006A	; 0x80006a <counter>
 422:	30 91 6b 00 	lds	r19, 0x006B	; 0x80006b <counter+0x1>
 426:	28 17       	cp	r18, r24
 428:	39 07       	cpc	r19, r25
 42a:	a9 f5       	brne	.+106    	; 0x496 <__stack+0x37>
 42c:	c4 2f       	mov	r28, r20
 42e:	c0 90 70 00 	lds	r12, 0x0070	; 0x800070 <average>
 432:	d0 90 71 00 	lds	r13, 0x0071	; 0x800071 <average+0x1>
 436:	e0 90 72 00 	lds	r14, 0x0072	; 0x800072 <average+0x2>
 43a:	f0 90 73 00 	lds	r15, 0x0073	; 0x800073 <average+0x3>
 43e:	70 e0       	ldi	r23, 0x00	; 0
 440:	80 e0       	ldi	r24, 0x00	; 0
 442:	90 e0       	ldi	r25, 0x00	; 0
 444:	0e 94 8d 04 	call	0x91a	; 0x91a <__floatsisf>
 448:	a7 01       	movw	r20, r14
 44a:	96 01       	movw	r18, r12
 44c:	0e 94 e5 03 	call	0x7ca	; 0x7ca <__cmpsf2>
 450:	18 16       	cp	r1, r24
 452:	24 f0       	brlt	.+8      	; 0x45c <ACTIVATION+0x48>
 454:	c5 9a       	sbi	0x18, 5	; 24
 456:	c6 98       	cbi	0x18, 6	; 24
 458:	c4 9a       	sbi	0x18, 4	; 24
 45a:	1d c0       	rjmp	.+58     	; 0x496 <__stack+0x37>
 45c:	6c 2f       	mov	r22, r28
 45e:	70 e0       	ldi	r23, 0x00	; 0
 460:	80 e0       	ldi	r24, 0x00	; 0
 462:	90 e0       	ldi	r25, 0x00	; 0
 464:	0e 94 8d 04 	call	0x91a	; 0x91a <__floatsisf>
 468:	9b 01       	movw	r18, r22
 46a:	ac 01       	movw	r20, r24
 46c:	c7 01       	movw	r24, r14
 46e:	b6 01       	movw	r22, r12
 470:	0e 94 e5 03 	call	0x7ca	; 0x7ca <__cmpsf2>
 474:	18 16       	cp	r1, r24
 476:	7c f0       	brlt	.+30     	; 0x496 <__stack+0x37>
 478:	c5 98       	cbi	0x18, 5	; 24
 47a:	c6 9a       	sbi	0x18, 6	; 24
 47c:	98 b3       	in	r25, 0x18	; 24
 47e:	80 e1       	ldi	r24, 0x10	; 16
 480:	89 27       	eor	r24, r25
 482:	88 bb       	out	0x18, r24	; 24
 484:	2f ed       	ldi	r18, 0xDF	; 223
 486:	82 e2       	ldi	r24, 0x22	; 34
 488:	92 e0       	ldi	r25, 0x02	; 2
 48a:	21 50       	subi	r18, 0x01	; 1
 48c:	80 40       	sbci	r24, 0x00	; 0
 48e:	90 40       	sbci	r25, 0x00	; 0
 490:	e1 f7       	brne	.-8      	; 0x48a <__stack+0x2b>
 492:	00 c0       	rjmp	.+0      	; 0x494 <__stack+0x35>
 494:	00 00       	nop
 496:	cf 91       	pop	r28
 498:	ff 90       	pop	r15
 49a:	ef 90       	pop	r14
 49c:	df 90       	pop	r13
 49e:	cf 90       	pop	r12
 4a0:	08 95       	ret

000004a2 <ELEMENTS>:
 4a2:	e0 91 6a 00 	lds	r30, 0x006A	; 0x80006a <counter>
 4a6:	f0 91 6b 00 	lds	r31, 0x006B	; 0x80006b <counter+0x1>
 4aa:	35 96       	adiw	r30, 0x05	; 5
 4ac:	e9 30       	cpi	r30, 0x09	; 9
 4ae:	f1 05       	cpc	r31, r1
 4b0:	08 f0       	brcs	.+2      	; 0x4b4 <ELEMENTS+0x12>
 4b2:	44 c0       	rjmp	.+136    	; 0x53c <ELEMENTS+0x9a>
 4b4:	ed 5c       	subi	r30, 0xCD	; 205
 4b6:	ff 4f       	sbci	r31, 0xFF	; 255
 4b8:	0c 94 3b 07 	jmp	0xe76	; 0xe76 <__tablejump2__>
 4bc:	4c e3       	ldi	r20, 0x3C	; 60
 4be:	50 e0       	ldi	r21, 0x00	; 0
 4c0:	66 e4       	ldi	r22, 0x46	; 70
 4c2:	70 e0       	ldi	r23, 0x00	; 0
 4c4:	81 e0       	ldi	r24, 0x01	; 1
 4c6:	90 e0       	ldi	r25, 0x00	; 0
 4c8:	37 c0       	rjmp	.+110    	; 0x538 <ELEMENTS+0x96>
 4ca:	42 e3       	ldi	r20, 0x32	; 50
 4cc:	50 e0       	ldi	r21, 0x00	; 0
 4ce:	6c e3       	ldi	r22, 0x3C	; 60
 4d0:	70 e0       	ldi	r23, 0x00	; 0
 4d2:	8f ef       	ldi	r24, 0xFF	; 255
 4d4:	9f ef       	ldi	r25, 0xFF	; 255
 4d6:	30 c0       	rjmp	.+96     	; 0x538 <ELEMENTS+0x96>
 4d8:	41 e4       	ldi	r20, 0x41	; 65
 4da:	50 e0       	ldi	r21, 0x00	; 0
 4dc:	6b e4       	ldi	r22, 0x4B	; 75
 4de:	70 e0       	ldi	r23, 0x00	; 0
 4e0:	82 e0       	ldi	r24, 0x02	; 2
 4e2:	90 e0       	ldi	r25, 0x00	; 0
 4e4:	29 c0       	rjmp	.+82     	; 0x538 <ELEMENTS+0x96>
 4e6:	4d e2       	ldi	r20, 0x2D	; 45
 4e8:	50 e0       	ldi	r21, 0x00	; 0
 4ea:	67 e3       	ldi	r22, 0x37	; 55
 4ec:	70 e0       	ldi	r23, 0x00	; 0
 4ee:	8e ef       	ldi	r24, 0xFE	; 254
 4f0:	9f ef       	ldi	r25, 0xFF	; 255
 4f2:	22 c0       	rjmp	.+68     	; 0x538 <ELEMENTS+0x96>
 4f4:	46 e4       	ldi	r20, 0x46	; 70
 4f6:	50 e0       	ldi	r21, 0x00	; 0
 4f8:	60 e5       	ldi	r22, 0x50	; 80
 4fa:	70 e0       	ldi	r23, 0x00	; 0
 4fc:	83 e0       	ldi	r24, 0x03	; 3
 4fe:	90 e0       	ldi	r25, 0x00	; 0
 500:	1b c0       	rjmp	.+54     	; 0x538 <ELEMENTS+0x96>
 502:	48 e2       	ldi	r20, 0x28	; 40
 504:	50 e0       	ldi	r21, 0x00	; 0
 506:	62 e3       	ldi	r22, 0x32	; 50
 508:	70 e0       	ldi	r23, 0x00	; 0
 50a:	8d ef       	ldi	r24, 0xFD	; 253
 50c:	9f ef       	ldi	r25, 0xFF	; 255
 50e:	14 c0       	rjmp	.+40     	; 0x538 <ELEMENTS+0x96>
 510:	47 e3       	ldi	r20, 0x37	; 55
 512:	50 e0       	ldi	r21, 0x00	; 0
 514:	61 e4       	ldi	r22, 0x41	; 65
 516:	70 e0       	ldi	r23, 0x00	; 0
 518:	80 e0       	ldi	r24, 0x00	; 0
 51a:	90 e0       	ldi	r25, 0x00	; 0
 51c:	0d c0       	rjmp	.+26     	; 0x538 <ELEMENTS+0x96>
 51e:	43 e2       	ldi	r20, 0x23	; 35
 520:	50 e0       	ldi	r21, 0x00	; 0
 522:	6d e2       	ldi	r22, 0x2D	; 45
 524:	70 e0       	ldi	r23, 0x00	; 0
 526:	8c ef       	ldi	r24, 0xFC	; 252
 528:	9f ef       	ldi	r25, 0xFF	; 255
 52a:	06 c0       	rjmp	.+12     	; 0x538 <ELEMENTS+0x96>
 52c:	4e e1       	ldi	r20, 0x1E	; 30
 52e:	50 e0       	ldi	r21, 0x00	; 0
 530:	68 e2       	ldi	r22, 0x28	; 40
 532:	70 e0       	ldi	r23, 0x00	; 0
 534:	8b ef       	ldi	r24, 0xFB	; 251
 536:	9f ef       	ldi	r25, 0xFF	; 255
 538:	0c 94 0a 02 	jmp	0x414	; 0x414 <ACTIVATION>
 53c:	08 95       	ret

0000053e <on_off_7_segment>:
 53e:	81 30       	cpi	r24, 0x01	; 1
 540:	11 f4       	brne	.+4      	; 0x546 <on_off_7_segment+0x8>
 542:	0c 94 a2 00 	jmp	0x144	; 0x144 <on_off_7_segment.part.1>
 546:	81 11       	cpse	r24, r1
 548:	02 c0       	rjmp	.+4      	; 0x54e <on_off_7_segment+0x10>
 54a:	c0 9a       	sbi	0x18, 0	; 24
 54c:	df 9a       	sbi	0x1b, 7	; 27
 54e:	08 95       	ret

00000550 <current_water_temperature>:
 550:	81 e0       	ldi	r24, 0x01	; 1
 552:	90 e0       	ldi	r25, 0x00	; 0
 554:	0e 94 9f 02 	call	0x53e	; 0x53e <on_off_7_segment>
 558:	60 91 74 00 	lds	r22, 0x0074	; 0x800074 <x>
 55c:	70 91 75 00 	lds	r23, 0x0075	; 0x800075 <x+0x1>
 560:	80 91 76 00 	lds	r24, 0x0076	; 0x800076 <x+0x2>
 564:	90 91 77 00 	lds	r25, 0x0077	; 0x800077 <x+0x3>
 568:	0e 94 5c 04 	call	0x8b8	; 0x8b8 <__fixunssfsi>
 56c:	86 2f       	mov	r24, r22
 56e:	0e 94 ee 00 	call	0x1dc	; 0x1dc <decimal_to_bcd>
 572:	82 bb       	out	0x12, r24	; 18
 574:	08 95       	ret

00000576 <OFF_MODE>:
 576:	c5 98       	cbi	0x18, 5	; 24
 578:	c6 98       	cbi	0x18, 6	; 24
 57a:	c4 98       	cbi	0x18, 4	; 24
 57c:	80 e0       	ldi	r24, 0x00	; 0
 57e:	0c 94 9f 02 	jmp	0x53e	; 0x53e <on_off_7_segment>

00000582 <on_off_mode>:
 582:	b1 9b       	sbis	0x16, 1	; 22
 584:	0a c0       	rjmp	.+20     	; 0x59a <on_off_mode+0x18>
 586:	80 91 68 00 	lds	r24, 0x0068	; 0x800068 <flag>
 58a:	81 11       	cpse	r24, r1
 58c:	06 c0       	rjmp	.+12     	; 0x59a <on_off_mode+0x18>
 58e:	81 e0       	ldi	r24, 0x01	; 1
 590:	80 93 68 00 	sts	0x0068, r24	; 0x800068 <flag>
 594:	b1 99       	sbic	0x16, 1	; 22
 596:	fe cf       	rjmp	.-4      	; 0x594 <on_off_mode+0x12>
 598:	08 95       	ret
 59a:	b1 9b       	sbis	0x16, 1	; 22
 59c:	0a c0       	rjmp	.+20     	; 0x5b2 <on_off_mode+0x30>
 59e:	80 91 68 00 	lds	r24, 0x0068	; 0x800068 <flag>
 5a2:	81 30       	cpi	r24, 0x01	; 1
 5a4:	31 f4       	brne	.+12     	; 0x5b2 <on_off_mode+0x30>
 5a6:	b1 99       	sbic	0x16, 1	; 22
 5a8:	fe cf       	rjmp	.-4      	; 0x5a6 <on_off_mode+0x24>
 5aa:	10 92 68 00 	sts	0x0068, r1	; 0x800068 <flag>
 5ae:	0c 94 bb 02 	jmp	0x576	; 0x576 <OFF_MODE>
 5b2:	08 95       	ret

000005b4 <main>:
 5b4:	0e 94 a5 00 	call	0x14a	; 0x14a <DATA_DIRECTION_REGISTER>
 5b8:	0e 94 15 01 	call	0x22a	; 0x22a <INT_interrupt>
 5bc:	0e 94 91 00 	call	0x122	; 0x122 <ADC_init>
 5c0:	12 ba       	out	0x12, r1	; 18
 5c2:	0e 94 c1 02 	call	0x582	; 0x582 <on_off_mode>
 5c6:	80 91 68 00 	lds	r24, 0x0068	; 0x800068 <flag>
 5ca:	81 30       	cpi	r24, 0x01	; 1
 5cc:	d1 f7       	brne	.-12     	; 0x5c2 <main+0xe>
 5ce:	0e 94 a8 02 	call	0x550	; 0x550 <current_water_temperature>
 5d2:	0e 94 51 02 	call	0x4a2	; 0x4a2 <ELEMENTS>
 5d6:	0e 94 c1 02 	call	0x582	; 0x582 <on_off_mode>
 5da:	b3 99       	sbic	0x16, 3	; 22
 5dc:	62 c0       	rjmp	.+196    	; 0x6a2 <main+0xee>
 5de:	b2 99       	sbic	0x16, 2	; 22
 5e0:	60 c0       	rjmp	.+192    	; 0x6a2 <main+0xee>
 5e2:	f1 cf       	rjmp	.-30     	; 0x5c6 <main+0x12>
 5e4:	80 91 68 00 	lds	r24, 0x0068	; 0x800068 <flag>
 5e8:	81 30       	cpi	r24, 0x01	; 1
 5ea:	09 f0       	breq	.+2      	; 0x5ee <main+0x3a>
 5ec:	70 c0       	rjmp	.+224    	; 0x6ce <main+0x11a>
 5ee:	81 e0       	ldi	r24, 0x01	; 1
 5f0:	90 e0       	ldi	r25, 0x00	; 0
 5f2:	0e 94 9f 02 	call	0x53e	; 0x53e <on_off_7_segment>
 5f6:	0e 94 bd 01 	call	0x37a	; 0x37a <setting_temp>
 5fa:	0e 94 51 02 	call	0x4a2	; 0x4a2 <ELEMENTS>
 5fe:	0e 94 c1 02 	call	0x582	; 0x582 <on_off_mode>
 602:	20 91 60 00 	lds	r18, 0x0060	; 0x800060 <__DATA_REGION_ORIGIN__>
 606:	30 91 61 00 	lds	r19, 0x0061	; 0x800061 <__DATA_REGION_ORIGIN__+0x1>
 60a:	40 91 62 00 	lds	r20, 0x0062	; 0x800062 <__DATA_REGION_ORIGIN__+0x2>
 60e:	50 91 63 00 	lds	r21, 0x0063	; 0x800063 <__DATA_REGION_ORIGIN__+0x3>
 612:	60 91 64 00 	lds	r22, 0x0064	; 0x800064 <__DATA_REGION_ORIGIN__+0x4>
 616:	70 91 65 00 	lds	r23, 0x0065	; 0x800065 <__DATA_REGION_ORIGIN__+0x5>
 61a:	80 91 66 00 	lds	r24, 0x0066	; 0x800066 <__DATA_REGION_ORIGIN__+0x6>
 61e:	90 91 67 00 	lds	r25, 0x0067	; 0x800067 <__DATA_REGION_ORIGIN__+0x7>
 622:	a1 e0       	ldi	r26, 0x01	; 1
 624:	0e 94 41 07 	call	0xe82	; 0xe82 <__adddi3_s8>
 628:	20 93 60 00 	sts	0x0060, r18	; 0x800060 <__DATA_REGION_ORIGIN__>
 62c:	30 93 61 00 	sts	0x0061, r19	; 0x800061 <__DATA_REGION_ORIGIN__+0x1>
 630:	40 93 62 00 	sts	0x0062, r20	; 0x800062 <__DATA_REGION_ORIGIN__+0x2>
 634:	50 93 63 00 	sts	0x0063, r21	; 0x800063 <__DATA_REGION_ORIGIN__+0x3>
 638:	60 93 64 00 	sts	0x0064, r22	; 0x800064 <__DATA_REGION_ORIGIN__+0x4>
 63c:	70 93 65 00 	sts	0x0065, r23	; 0x800065 <__DATA_REGION_ORIGIN__+0x5>
 640:	80 93 66 00 	sts	0x0066, r24	; 0x800066 <__DATA_REGION_ORIGIN__+0x6>
 644:	90 93 67 00 	sts	0x0067, r25	; 0x800067 <__DATA_REGION_ORIGIN__+0x7>
 648:	80 e0       	ldi	r24, 0x00	; 0
 64a:	90 e0       	ldi	r25, 0x00	; 0
 64c:	0e 94 9f 02 	call	0x53e	; 0x53e <on_off_7_segment>
 650:	0e 94 bd 01 	call	0x37a	; 0x37a <setting_temp>
 654:	0e 94 51 02 	call	0x4a2	; 0x4a2 <ELEMENTS>
 658:	0e 94 c1 02 	call	0x582	; 0x582 <on_off_mode>
 65c:	20 91 60 00 	lds	r18, 0x0060	; 0x800060 <__DATA_REGION_ORIGIN__>
 660:	30 91 61 00 	lds	r19, 0x0061	; 0x800061 <__DATA_REGION_ORIGIN__+0x1>
 664:	40 91 62 00 	lds	r20, 0x0062	; 0x800062 <__DATA_REGION_ORIGIN__+0x2>
 668:	50 91 63 00 	lds	r21, 0x0063	; 0x800063 <__DATA_REGION_ORIGIN__+0x3>
 66c:	60 91 64 00 	lds	r22, 0x0064	; 0x800064 <__DATA_REGION_ORIGIN__+0x4>
 670:	70 91 65 00 	lds	r23, 0x0065	; 0x800065 <__DATA_REGION_ORIGIN__+0x5>
 674:	80 91 66 00 	lds	r24, 0x0066	; 0x800066 <__DATA_REGION_ORIGIN__+0x6>
 678:	90 91 67 00 	lds	r25, 0x0067	; 0x800067 <__DATA_REGION_ORIGIN__+0x7>
 67c:	a1 e0       	ldi	r26, 0x01	; 1
 67e:	0e 94 41 07 	call	0xe82	; 0xe82 <__adddi3_s8>
 682:	20 93 60 00 	sts	0x0060, r18	; 0x800060 <__DATA_REGION_ORIGIN__>
 686:	30 93 61 00 	sts	0x0061, r19	; 0x800061 <__DATA_REGION_ORIGIN__+0x1>
 68a:	40 93 62 00 	sts	0x0062, r20	; 0x800062 <__DATA_REGION_ORIGIN__+0x2>
 68e:	50 93 63 00 	sts	0x0063, r21	; 0x800063 <__DATA_REGION_ORIGIN__+0x3>
 692:	60 93 64 00 	sts	0x0064, r22	; 0x800064 <__DATA_REGION_ORIGIN__+0x4>
 696:	70 93 65 00 	sts	0x0065, r23	; 0x800065 <__DATA_REGION_ORIGIN__+0x5>
 69a:	80 93 66 00 	sts	0x0066, r24	; 0x800066 <__DATA_REGION_ORIGIN__+0x6>
 69e:	90 93 67 00 	sts	0x0067, r25	; 0x800067 <__DATA_REGION_ORIGIN__+0x7>
 6a2:	20 91 60 00 	lds	r18, 0x0060	; 0x800060 <__DATA_REGION_ORIGIN__>
 6a6:	30 91 61 00 	lds	r19, 0x0061	; 0x800061 <__DATA_REGION_ORIGIN__+0x1>
 6aa:	40 91 62 00 	lds	r20, 0x0062	; 0x800062 <__DATA_REGION_ORIGIN__+0x2>
 6ae:	50 91 63 00 	lds	r21, 0x0063	; 0x800063 <__DATA_REGION_ORIGIN__+0x3>
 6b2:	60 91 64 00 	lds	r22, 0x0064	; 0x800064 <__DATA_REGION_ORIGIN__+0x4>
 6b6:	70 91 65 00 	lds	r23, 0x0065	; 0x800065 <__DATA_REGION_ORIGIN__+0x5>
 6ba:	80 91 66 00 	lds	r24, 0x0066	; 0x800066 <__DATA_REGION_ORIGIN__+0x6>
 6be:	90 91 67 00 	lds	r25, 0x0067	; 0x800067 <__DATA_REGION_ORIGIN__+0x7>
 6c2:	a9 e0       	ldi	r26, 0x09	; 9
 6c4:	0e 94 4d 07 	call	0xe9a	; 0xe9a <__cmpdi2_s8>
 6c8:	09 f0       	breq	.+2      	; 0x6cc <main+0x118>
 6ca:	0c f4       	brge	.+2      	; 0x6ce <main+0x11a>
 6cc:	8b cf       	rjmp	.-234    	; 0x5e4 <main+0x30>
 6ce:	10 92 60 00 	sts	0x0060, r1	; 0x800060 <__DATA_REGION_ORIGIN__>
 6d2:	10 92 61 00 	sts	0x0061, r1	; 0x800061 <__DATA_REGION_ORIGIN__+0x1>
 6d6:	10 92 62 00 	sts	0x0062, r1	; 0x800062 <__DATA_REGION_ORIGIN__+0x2>
 6da:	10 92 63 00 	sts	0x0063, r1	; 0x800063 <__DATA_REGION_ORIGIN__+0x3>
 6de:	10 92 64 00 	sts	0x0064, r1	; 0x800064 <__DATA_REGION_ORIGIN__+0x4>
 6e2:	10 92 65 00 	sts	0x0065, r1	; 0x800065 <__DATA_REGION_ORIGIN__+0x5>
 6e6:	10 92 66 00 	sts	0x0066, r1	; 0x800066 <__DATA_REGION_ORIGIN__+0x6>
 6ea:	10 92 67 00 	sts	0x0067, r1	; 0x800067 <__DATA_REGION_ORIGIN__+0x7>
 6ee:	6b cf       	rjmp	.-298    	; 0x5c6 <main+0x12>

000006f0 <__subsf3>:
 6f0:	50 58       	subi	r21, 0x80	; 128

000006f2 <__addsf3>:
 6f2:	bb 27       	eor	r27, r27
 6f4:	aa 27       	eor	r26, r26
 6f6:	0e 94 90 03 	call	0x720	; 0x720 <__addsf3x>
 6fa:	0c 94 03 05 	jmp	0xa06	; 0xa06 <__fp_round>
 6fe:	0e 94 f5 04 	call	0x9ea	; 0x9ea <__fp_pscA>
 702:	38 f0       	brcs	.+14     	; 0x712 <__addsf3+0x20>
 704:	0e 94 fc 04 	call	0x9f8	; 0x9f8 <__fp_pscB>
 708:	20 f0       	brcs	.+8      	; 0x712 <__addsf3+0x20>
 70a:	39 f4       	brne	.+14     	; 0x71a <__addsf3+0x28>
 70c:	9f 3f       	cpi	r25, 0xFF	; 255
 70e:	19 f4       	brne	.+6      	; 0x716 <__addsf3+0x24>
 710:	26 f4       	brtc	.+8      	; 0x71a <__addsf3+0x28>
 712:	0c 94 f2 04 	jmp	0x9e4	; 0x9e4 <__fp_nan>
 716:	0e f4       	brtc	.+2      	; 0x71a <__addsf3+0x28>
 718:	e0 95       	com	r30
 71a:	e7 fb       	bst	r30, 7
 71c:	0c 94 ec 04 	jmp	0x9d8	; 0x9d8 <__fp_inf>

00000720 <__addsf3x>:
 720:	e9 2f       	mov	r30, r25
 722:	0e 94 14 05 	call	0xa28	; 0xa28 <__fp_split3>
 726:	58 f3       	brcs	.-42     	; 0x6fe <__addsf3+0xc>
 728:	ba 17       	cp	r27, r26
 72a:	62 07       	cpc	r22, r18
 72c:	73 07       	cpc	r23, r19
 72e:	84 07       	cpc	r24, r20
 730:	95 07       	cpc	r25, r21
 732:	20 f0       	brcs	.+8      	; 0x73c <__addsf3x+0x1c>
 734:	79 f4       	brne	.+30     	; 0x754 <__addsf3x+0x34>
 736:	a6 f5       	brtc	.+104    	; 0x7a0 <__addsf3x+0x80>
 738:	0c 94 36 05 	jmp	0xa6c	; 0xa6c <__fp_zero>
 73c:	0e f4       	brtc	.+2      	; 0x740 <__addsf3x+0x20>
 73e:	e0 95       	com	r30
 740:	0b 2e       	mov	r0, r27
 742:	ba 2f       	mov	r27, r26
 744:	a0 2d       	mov	r26, r0
 746:	0b 01       	movw	r0, r22
 748:	b9 01       	movw	r22, r18
 74a:	90 01       	movw	r18, r0
 74c:	0c 01       	movw	r0, r24
 74e:	ca 01       	movw	r24, r20
 750:	a0 01       	movw	r20, r0
 752:	11 24       	eor	r1, r1
 754:	ff 27       	eor	r31, r31
 756:	59 1b       	sub	r21, r25
 758:	99 f0       	breq	.+38     	; 0x780 <__addsf3x+0x60>
 75a:	59 3f       	cpi	r21, 0xF9	; 249
 75c:	50 f4       	brcc	.+20     	; 0x772 <__addsf3x+0x52>
 75e:	50 3e       	cpi	r21, 0xE0	; 224
 760:	68 f1       	brcs	.+90     	; 0x7bc <__addsf3x+0x9c>
 762:	1a 16       	cp	r1, r26
 764:	f0 40       	sbci	r31, 0x00	; 0
 766:	a2 2f       	mov	r26, r18
 768:	23 2f       	mov	r18, r19
 76a:	34 2f       	mov	r19, r20
 76c:	44 27       	eor	r20, r20
 76e:	58 5f       	subi	r21, 0xF8	; 248
 770:	f3 cf       	rjmp	.-26     	; 0x758 <__addsf3x+0x38>
 772:	46 95       	lsr	r20
 774:	37 95       	ror	r19
 776:	27 95       	ror	r18
 778:	a7 95       	ror	r26
 77a:	f0 40       	sbci	r31, 0x00	; 0
 77c:	53 95       	inc	r21
 77e:	c9 f7       	brne	.-14     	; 0x772 <__addsf3x+0x52>
 780:	7e f4       	brtc	.+30     	; 0x7a0 <__addsf3x+0x80>
 782:	1f 16       	cp	r1, r31
 784:	ba 0b       	sbc	r27, r26
 786:	62 0b       	sbc	r22, r18
 788:	73 0b       	sbc	r23, r19
 78a:	84 0b       	sbc	r24, r20
 78c:	ba f0       	brmi	.+46     	; 0x7bc <__addsf3x+0x9c>
 78e:	91 50       	subi	r25, 0x01	; 1
 790:	a1 f0       	breq	.+40     	; 0x7ba <__addsf3x+0x9a>
 792:	ff 0f       	add	r31, r31
 794:	bb 1f       	adc	r27, r27
 796:	66 1f       	adc	r22, r22
 798:	77 1f       	adc	r23, r23
 79a:	88 1f       	adc	r24, r24
 79c:	c2 f7       	brpl	.-16     	; 0x78e <__addsf3x+0x6e>
 79e:	0e c0       	rjmp	.+28     	; 0x7bc <__addsf3x+0x9c>
 7a0:	ba 0f       	add	r27, r26
 7a2:	62 1f       	adc	r22, r18
 7a4:	73 1f       	adc	r23, r19
 7a6:	84 1f       	adc	r24, r20
 7a8:	48 f4       	brcc	.+18     	; 0x7bc <__addsf3x+0x9c>
 7aa:	87 95       	ror	r24
 7ac:	77 95       	ror	r23
 7ae:	67 95       	ror	r22
 7b0:	b7 95       	ror	r27
 7b2:	f7 95       	ror	r31
 7b4:	9e 3f       	cpi	r25, 0xFE	; 254
 7b6:	08 f0       	brcs	.+2      	; 0x7ba <__addsf3x+0x9a>
 7b8:	b0 cf       	rjmp	.-160    	; 0x71a <__addsf3+0x28>
 7ba:	93 95       	inc	r25
 7bc:	88 0f       	add	r24, r24
 7be:	08 f0       	brcs	.+2      	; 0x7c2 <__addsf3x+0xa2>
 7c0:	99 27       	eor	r25, r25
 7c2:	ee 0f       	add	r30, r30
 7c4:	97 95       	ror	r25
 7c6:	87 95       	ror	r24
 7c8:	08 95       	ret

000007ca <__cmpsf2>:
 7ca:	0e 94 c8 04 	call	0x990	; 0x990 <__fp_cmp>
 7ce:	08 f4       	brcc	.+2      	; 0x7d2 <__cmpsf2+0x8>
 7d0:	81 e0       	ldi	r24, 0x01	; 1
 7d2:	08 95       	ret

000007d4 <__divsf3>:
 7d4:	0e 94 fe 03 	call	0x7fc	; 0x7fc <__divsf3x>
 7d8:	0c 94 03 05 	jmp	0xa06	; 0xa06 <__fp_round>
 7dc:	0e 94 fc 04 	call	0x9f8	; 0x9f8 <__fp_pscB>
 7e0:	58 f0       	brcs	.+22     	; 0x7f8 <__divsf3+0x24>
 7e2:	0e 94 f5 04 	call	0x9ea	; 0x9ea <__fp_pscA>
 7e6:	40 f0       	brcs	.+16     	; 0x7f8 <__divsf3+0x24>
 7e8:	29 f4       	brne	.+10     	; 0x7f4 <__divsf3+0x20>
 7ea:	5f 3f       	cpi	r21, 0xFF	; 255
 7ec:	29 f0       	breq	.+10     	; 0x7f8 <__divsf3+0x24>
 7ee:	0c 94 ec 04 	jmp	0x9d8	; 0x9d8 <__fp_inf>
 7f2:	51 11       	cpse	r21, r1
 7f4:	0c 94 37 05 	jmp	0xa6e	; 0xa6e <__fp_szero>
 7f8:	0c 94 f2 04 	jmp	0x9e4	; 0x9e4 <__fp_nan>

000007fc <__divsf3x>:
 7fc:	0e 94 14 05 	call	0xa28	; 0xa28 <__fp_split3>
 800:	68 f3       	brcs	.-38     	; 0x7dc <__divsf3+0x8>

00000802 <__divsf3_pse>:
 802:	99 23       	and	r25, r25
 804:	b1 f3       	breq	.-20     	; 0x7f2 <__divsf3+0x1e>
 806:	55 23       	and	r21, r21
 808:	91 f3       	breq	.-28     	; 0x7ee <__divsf3+0x1a>
 80a:	95 1b       	sub	r25, r21
 80c:	55 0b       	sbc	r21, r21
 80e:	bb 27       	eor	r27, r27
 810:	aa 27       	eor	r26, r26
 812:	62 17       	cp	r22, r18
 814:	73 07       	cpc	r23, r19
 816:	84 07       	cpc	r24, r20
 818:	38 f0       	brcs	.+14     	; 0x828 <__divsf3_pse+0x26>
 81a:	9f 5f       	subi	r25, 0xFF	; 255
 81c:	5f 4f       	sbci	r21, 0xFF	; 255
 81e:	22 0f       	add	r18, r18
 820:	33 1f       	adc	r19, r19
 822:	44 1f       	adc	r20, r20
 824:	aa 1f       	adc	r26, r26
 826:	a9 f3       	breq	.-22     	; 0x812 <__divsf3_pse+0x10>
 828:	35 d0       	rcall	.+106    	; 0x894 <__divsf3_pse+0x92>
 82a:	0e 2e       	mov	r0, r30
 82c:	3a f0       	brmi	.+14     	; 0x83c <__divsf3_pse+0x3a>
 82e:	e0 e8       	ldi	r30, 0x80	; 128
 830:	32 d0       	rcall	.+100    	; 0x896 <__divsf3_pse+0x94>
 832:	91 50       	subi	r25, 0x01	; 1
 834:	50 40       	sbci	r21, 0x00	; 0
 836:	e6 95       	lsr	r30
 838:	00 1c       	adc	r0, r0
 83a:	ca f7       	brpl	.-14     	; 0x82e <__divsf3_pse+0x2c>
 83c:	2b d0       	rcall	.+86     	; 0x894 <__divsf3_pse+0x92>
 83e:	fe 2f       	mov	r31, r30
 840:	29 d0       	rcall	.+82     	; 0x894 <__divsf3_pse+0x92>
 842:	66 0f       	add	r22, r22
 844:	77 1f       	adc	r23, r23
 846:	88 1f       	adc	r24, r24
 848:	bb 1f       	adc	r27, r27
 84a:	26 17       	cp	r18, r22
 84c:	37 07       	cpc	r19, r23
 84e:	48 07       	cpc	r20, r24
 850:	ab 07       	cpc	r26, r27
 852:	b0 e8       	ldi	r27, 0x80	; 128
 854:	09 f0       	breq	.+2      	; 0x858 <__divsf3_pse+0x56>
 856:	bb 0b       	sbc	r27, r27
 858:	80 2d       	mov	r24, r0
 85a:	bf 01       	movw	r22, r30
 85c:	ff 27       	eor	r31, r31
 85e:	93 58       	subi	r25, 0x83	; 131
 860:	5f 4f       	sbci	r21, 0xFF	; 255
 862:	3a f0       	brmi	.+14     	; 0x872 <__divsf3_pse+0x70>
 864:	9e 3f       	cpi	r25, 0xFE	; 254
 866:	51 05       	cpc	r21, r1
 868:	78 f0       	brcs	.+30     	; 0x888 <__divsf3_pse+0x86>
 86a:	0c 94 ec 04 	jmp	0x9d8	; 0x9d8 <__fp_inf>
 86e:	0c 94 37 05 	jmp	0xa6e	; 0xa6e <__fp_szero>
 872:	5f 3f       	cpi	r21, 0xFF	; 255
 874:	e4 f3       	brlt	.-8      	; 0x86e <__divsf3_pse+0x6c>
 876:	98 3e       	cpi	r25, 0xE8	; 232
 878:	d4 f3       	brlt	.-12     	; 0x86e <__divsf3_pse+0x6c>
 87a:	86 95       	lsr	r24
 87c:	77 95       	ror	r23
 87e:	67 95       	ror	r22
 880:	b7 95       	ror	r27
 882:	f7 95       	ror	r31
 884:	9f 5f       	subi	r25, 0xFF	; 255
 886:	c9 f7       	brne	.-14     	; 0x87a <__divsf3_pse+0x78>
 888:	88 0f       	add	r24, r24
 88a:	91 1d       	adc	r25, r1
 88c:	96 95       	lsr	r25
 88e:	87 95       	ror	r24
 890:	97 f9       	bld	r25, 7
 892:	08 95       	ret
 894:	e1 e0       	ldi	r30, 0x01	; 1
 896:	66 0f       	add	r22, r22
 898:	77 1f       	adc	r23, r23
 89a:	88 1f       	adc	r24, r24
 89c:	bb 1f       	adc	r27, r27
 89e:	62 17       	cp	r22, r18
 8a0:	73 07       	cpc	r23, r19
 8a2:	84 07       	cpc	r24, r20
 8a4:	ba 07       	cpc	r27, r26
 8a6:	20 f0       	brcs	.+8      	; 0x8b0 <__divsf3_pse+0xae>
 8a8:	62 1b       	sub	r22, r18
 8aa:	73 0b       	sbc	r23, r19
 8ac:	84 0b       	sbc	r24, r20
 8ae:	ba 0b       	sbc	r27, r26
 8b0:	ee 1f       	adc	r30, r30
 8b2:	88 f7       	brcc	.-30     	; 0x896 <__divsf3_pse+0x94>
 8b4:	e0 95       	com	r30
 8b6:	08 95       	ret

000008b8 <__fixunssfsi>:
 8b8:	0e 94 1c 05 	call	0xa38	; 0xa38 <__fp_splitA>
 8bc:	88 f0       	brcs	.+34     	; 0x8e0 <__fixunssfsi+0x28>
 8be:	9f 57       	subi	r25, 0x7F	; 127
 8c0:	98 f0       	brcs	.+38     	; 0x8e8 <__fixunssfsi+0x30>
 8c2:	b9 2f       	mov	r27, r25
 8c4:	99 27       	eor	r25, r25
 8c6:	b7 51       	subi	r27, 0x17	; 23
 8c8:	b0 f0       	brcs	.+44     	; 0x8f6 <__fixunssfsi+0x3e>
 8ca:	e1 f0       	breq	.+56     	; 0x904 <__fixunssfsi+0x4c>
 8cc:	66 0f       	add	r22, r22
 8ce:	77 1f       	adc	r23, r23
 8d0:	88 1f       	adc	r24, r24
 8d2:	99 1f       	adc	r25, r25
 8d4:	1a f0       	brmi	.+6      	; 0x8dc <__fixunssfsi+0x24>
 8d6:	ba 95       	dec	r27
 8d8:	c9 f7       	brne	.-14     	; 0x8cc <__fixunssfsi+0x14>
 8da:	14 c0       	rjmp	.+40     	; 0x904 <__fixunssfsi+0x4c>
 8dc:	b1 30       	cpi	r27, 0x01	; 1
 8de:	91 f0       	breq	.+36     	; 0x904 <__fixunssfsi+0x4c>
 8e0:	0e 94 36 05 	call	0xa6c	; 0xa6c <__fp_zero>
 8e4:	b1 e0       	ldi	r27, 0x01	; 1
 8e6:	08 95       	ret
 8e8:	0c 94 36 05 	jmp	0xa6c	; 0xa6c <__fp_zero>
 8ec:	67 2f       	mov	r22, r23
 8ee:	78 2f       	mov	r23, r24
 8f0:	88 27       	eor	r24, r24
 8f2:	b8 5f       	subi	r27, 0xF8	; 248
 8f4:	39 f0       	breq	.+14     	; 0x904 <__fixunssfsi+0x4c>
 8f6:	b9 3f       	cpi	r27, 0xF9	; 249
 8f8:	cc f3       	brlt	.-14     	; 0x8ec <__fixunssfsi+0x34>
 8fa:	86 95       	lsr	r24
 8fc:	77 95       	ror	r23
 8fe:	67 95       	ror	r22
 900:	b3 95       	inc	r27
 902:	d9 f7       	brne	.-10     	; 0x8fa <__fixunssfsi+0x42>
 904:	3e f4       	brtc	.+14     	; 0x914 <__fixunssfsi+0x5c>
 906:	90 95       	com	r25
 908:	80 95       	com	r24
 90a:	70 95       	com	r23
 90c:	61 95       	neg	r22
 90e:	7f 4f       	sbci	r23, 0xFF	; 255
 910:	8f 4f       	sbci	r24, 0xFF	; 255
 912:	9f 4f       	sbci	r25, 0xFF	; 255
 914:	08 95       	ret

00000916 <__floatunsisf>:
 916:	e8 94       	clt
 918:	09 c0       	rjmp	.+18     	; 0x92c <__floatsisf+0x12>

0000091a <__floatsisf>:
 91a:	97 fb       	bst	r25, 7
 91c:	3e f4       	brtc	.+14     	; 0x92c <__floatsisf+0x12>
 91e:	90 95       	com	r25
 920:	80 95       	com	r24
 922:	70 95       	com	r23
 924:	61 95       	neg	r22
 926:	7f 4f       	sbci	r23, 0xFF	; 255
 928:	8f 4f       	sbci	r24, 0xFF	; 255
 92a:	9f 4f       	sbci	r25, 0xFF	; 255
 92c:	99 23       	and	r25, r25
 92e:	a9 f0       	breq	.+42     	; 0x95a <__floatsisf+0x40>
 930:	f9 2f       	mov	r31, r25
 932:	96 e9       	ldi	r25, 0x96	; 150
 934:	bb 27       	eor	r27, r27
 936:	93 95       	inc	r25
 938:	f6 95       	lsr	r31
 93a:	87 95       	ror	r24
 93c:	77 95       	ror	r23
 93e:	67 95       	ror	r22
 940:	b7 95       	ror	r27
 942:	f1 11       	cpse	r31, r1
 944:	f8 cf       	rjmp	.-16     	; 0x936 <__floatsisf+0x1c>
 946:	fa f4       	brpl	.+62     	; 0x986 <__floatsisf+0x6c>
 948:	bb 0f       	add	r27, r27
 94a:	11 f4       	brne	.+4      	; 0x950 <__floatsisf+0x36>
 94c:	60 ff       	sbrs	r22, 0
 94e:	1b c0       	rjmp	.+54     	; 0x986 <__floatsisf+0x6c>
 950:	6f 5f       	subi	r22, 0xFF	; 255
 952:	7f 4f       	sbci	r23, 0xFF	; 255
 954:	8f 4f       	sbci	r24, 0xFF	; 255
 956:	9f 4f       	sbci	r25, 0xFF	; 255
 958:	16 c0       	rjmp	.+44     	; 0x986 <__floatsisf+0x6c>
 95a:	88 23       	and	r24, r24
 95c:	11 f0       	breq	.+4      	; 0x962 <__floatsisf+0x48>
 95e:	96 e9       	ldi	r25, 0x96	; 150
 960:	11 c0       	rjmp	.+34     	; 0x984 <__floatsisf+0x6a>
 962:	77 23       	and	r23, r23
 964:	21 f0       	breq	.+8      	; 0x96e <__floatsisf+0x54>
 966:	9e e8       	ldi	r25, 0x8E	; 142
 968:	87 2f       	mov	r24, r23
 96a:	76 2f       	mov	r23, r22
 96c:	05 c0       	rjmp	.+10     	; 0x978 <__floatsisf+0x5e>
 96e:	66 23       	and	r22, r22
 970:	71 f0       	breq	.+28     	; 0x98e <__floatsisf+0x74>
 972:	96 e8       	ldi	r25, 0x86	; 134
 974:	86 2f       	mov	r24, r22
 976:	70 e0       	ldi	r23, 0x00	; 0
 978:	60 e0       	ldi	r22, 0x00	; 0
 97a:	2a f0       	brmi	.+10     	; 0x986 <__floatsisf+0x6c>
 97c:	9a 95       	dec	r25
 97e:	66 0f       	add	r22, r22
 980:	77 1f       	adc	r23, r23
 982:	88 1f       	adc	r24, r24
 984:	da f7       	brpl	.-10     	; 0x97c <__floatsisf+0x62>
 986:	88 0f       	add	r24, r24
 988:	96 95       	lsr	r25
 98a:	87 95       	ror	r24
 98c:	97 f9       	bld	r25, 7
 98e:	08 95       	ret

00000990 <__fp_cmp>:
 990:	99 0f       	add	r25, r25
 992:	00 08       	sbc	r0, r0
 994:	55 0f       	add	r21, r21
 996:	aa 0b       	sbc	r26, r26
 998:	e0 e8       	ldi	r30, 0x80	; 128
 99a:	fe ef       	ldi	r31, 0xFE	; 254
 99c:	16 16       	cp	r1, r22
 99e:	17 06       	cpc	r1, r23
 9a0:	e8 07       	cpc	r30, r24
 9a2:	f9 07       	cpc	r31, r25
 9a4:	c0 f0       	brcs	.+48     	; 0x9d6 <__fp_cmp+0x46>
 9a6:	12 16       	cp	r1, r18
 9a8:	13 06       	cpc	r1, r19
 9aa:	e4 07       	cpc	r30, r20
 9ac:	f5 07       	cpc	r31, r21
 9ae:	98 f0       	brcs	.+38     	; 0x9d6 <__fp_cmp+0x46>
 9b0:	62 1b       	sub	r22, r18
 9b2:	73 0b       	sbc	r23, r19
 9b4:	84 0b       	sbc	r24, r20
 9b6:	95 0b       	sbc	r25, r21
 9b8:	39 f4       	brne	.+14     	; 0x9c8 <__fp_cmp+0x38>
 9ba:	0a 26       	eor	r0, r26
 9bc:	61 f0       	breq	.+24     	; 0x9d6 <__fp_cmp+0x46>
 9be:	23 2b       	or	r18, r19
 9c0:	24 2b       	or	r18, r20
 9c2:	25 2b       	or	r18, r21
 9c4:	21 f4       	brne	.+8      	; 0x9ce <__fp_cmp+0x3e>
 9c6:	08 95       	ret
 9c8:	0a 26       	eor	r0, r26
 9ca:	09 f4       	brne	.+2      	; 0x9ce <__fp_cmp+0x3e>
 9cc:	a1 40       	sbci	r26, 0x01	; 1
 9ce:	a6 95       	lsr	r26
 9d0:	8f ef       	ldi	r24, 0xFF	; 255
 9d2:	81 1d       	adc	r24, r1
 9d4:	81 1d       	adc	r24, r1
 9d6:	08 95       	ret

000009d8 <__fp_inf>:
 9d8:	97 f9       	bld	r25, 7
 9da:	9f 67       	ori	r25, 0x7F	; 127
 9dc:	80 e8       	ldi	r24, 0x80	; 128
 9de:	70 e0       	ldi	r23, 0x00	; 0
 9e0:	60 e0       	ldi	r22, 0x00	; 0
 9e2:	08 95       	ret

000009e4 <__fp_nan>:
 9e4:	9f ef       	ldi	r25, 0xFF	; 255
 9e6:	80 ec       	ldi	r24, 0xC0	; 192
 9e8:	08 95       	ret

000009ea <__fp_pscA>:
 9ea:	00 24       	eor	r0, r0
 9ec:	0a 94       	dec	r0
 9ee:	16 16       	cp	r1, r22
 9f0:	17 06       	cpc	r1, r23
 9f2:	18 06       	cpc	r1, r24
 9f4:	09 06       	cpc	r0, r25
 9f6:	08 95       	ret

000009f8 <__fp_pscB>:
 9f8:	00 24       	eor	r0, r0
 9fa:	0a 94       	dec	r0
 9fc:	12 16       	cp	r1, r18
 9fe:	13 06       	cpc	r1, r19
 a00:	14 06       	cpc	r1, r20
 a02:	05 06       	cpc	r0, r21
 a04:	08 95       	ret

00000a06 <__fp_round>:
 a06:	09 2e       	mov	r0, r25
 a08:	03 94       	inc	r0
 a0a:	00 0c       	add	r0, r0
 a0c:	11 f4       	brne	.+4      	; 0xa12 <__fp_round+0xc>
 a0e:	88 23       	and	r24, r24
 a10:	52 f0       	brmi	.+20     	; 0xa26 <__fp_round+0x20>
 a12:	bb 0f       	add	r27, r27
 a14:	40 f4       	brcc	.+16     	; 0xa26 <__fp_round+0x20>
 a16:	bf 2b       	or	r27, r31
 a18:	11 f4       	brne	.+4      	; 0xa1e <__fp_round+0x18>
 a1a:	60 ff       	sbrs	r22, 0
 a1c:	04 c0       	rjmp	.+8      	; 0xa26 <__fp_round+0x20>
 a1e:	6f 5f       	subi	r22, 0xFF	; 255
 a20:	7f 4f       	sbci	r23, 0xFF	; 255
 a22:	8f 4f       	sbci	r24, 0xFF	; 255
 a24:	9f 4f       	sbci	r25, 0xFF	; 255
 a26:	08 95       	ret

00000a28 <__fp_split3>:
 a28:	57 fd       	sbrc	r21, 7
 a2a:	90 58       	subi	r25, 0x80	; 128
 a2c:	44 0f       	add	r20, r20
 a2e:	55 1f       	adc	r21, r21
 a30:	59 f0       	breq	.+22     	; 0xa48 <__fp_splitA+0x10>
 a32:	5f 3f       	cpi	r21, 0xFF	; 255
 a34:	71 f0       	breq	.+28     	; 0xa52 <__fp_splitA+0x1a>
 a36:	47 95       	ror	r20

00000a38 <__fp_splitA>:
 a38:	88 0f       	add	r24, r24
 a3a:	97 fb       	bst	r25, 7
 a3c:	99 1f       	adc	r25, r25
 a3e:	61 f0       	breq	.+24     	; 0xa58 <__fp_splitA+0x20>
 a40:	9f 3f       	cpi	r25, 0xFF	; 255
 a42:	79 f0       	breq	.+30     	; 0xa62 <__fp_splitA+0x2a>
 a44:	87 95       	ror	r24
 a46:	08 95       	ret
 a48:	12 16       	cp	r1, r18
 a4a:	13 06       	cpc	r1, r19
 a4c:	14 06       	cpc	r1, r20
 a4e:	55 1f       	adc	r21, r21
 a50:	f2 cf       	rjmp	.-28     	; 0xa36 <__fp_split3+0xe>
 a52:	46 95       	lsr	r20
 a54:	f1 df       	rcall	.-30     	; 0xa38 <__fp_splitA>
 a56:	08 c0       	rjmp	.+16     	; 0xa68 <__fp_splitA+0x30>
 a58:	16 16       	cp	r1, r22
 a5a:	17 06       	cpc	r1, r23
 a5c:	18 06       	cpc	r1, r24
 a5e:	99 1f       	adc	r25, r25
 a60:	f1 cf       	rjmp	.-30     	; 0xa44 <__fp_splitA+0xc>
 a62:	86 95       	lsr	r24
 a64:	71 05       	cpc	r23, r1
 a66:	61 05       	cpc	r22, r1
 a68:	08 94       	sec
 a6a:	08 95       	ret

00000a6c <__fp_zero>:
 a6c:	e8 94       	clt

00000a6e <__fp_szero>:
 a6e:	bb 27       	eor	r27, r27
 a70:	66 27       	eor	r22, r22
 a72:	77 27       	eor	r23, r23
 a74:	cb 01       	movw	r24, r22
 a76:	97 f9       	bld	r25, 7
 a78:	08 95       	ret

00000a7a <__mulsf3>:
 a7a:	0e 94 50 05 	call	0xaa0	; 0xaa0 <__mulsf3x>
 a7e:	0c 94 03 05 	jmp	0xa06	; 0xa06 <__fp_round>
 a82:	0e 94 f5 04 	call	0x9ea	; 0x9ea <__fp_pscA>
 a86:	38 f0       	brcs	.+14     	; 0xa96 <__mulsf3+0x1c>
 a88:	0e 94 fc 04 	call	0x9f8	; 0x9f8 <__fp_pscB>
 a8c:	20 f0       	brcs	.+8      	; 0xa96 <__mulsf3+0x1c>
 a8e:	95 23       	and	r25, r21
 a90:	11 f0       	breq	.+4      	; 0xa96 <__mulsf3+0x1c>
 a92:	0c 94 ec 04 	jmp	0x9d8	; 0x9d8 <__fp_inf>
 a96:	0c 94 f2 04 	jmp	0x9e4	; 0x9e4 <__fp_nan>
 a9a:	11 24       	eor	r1, r1
 a9c:	0c 94 37 05 	jmp	0xa6e	; 0xa6e <__fp_szero>

00000aa0 <__mulsf3x>:
 aa0:	0e 94 14 05 	call	0xa28	; 0xa28 <__fp_split3>
 aa4:	70 f3       	brcs	.-36     	; 0xa82 <__mulsf3+0x8>

00000aa6 <__mulsf3_pse>:
 aa6:	95 9f       	mul	r25, r21
 aa8:	c1 f3       	breq	.-16     	; 0xa9a <__mulsf3+0x20>
 aaa:	95 0f       	add	r25, r21
 aac:	50 e0       	ldi	r21, 0x00	; 0
 aae:	55 1f       	adc	r21, r21
 ab0:	62 9f       	mul	r22, r18
 ab2:	f0 01       	movw	r30, r0
 ab4:	72 9f       	mul	r23, r18
 ab6:	bb 27       	eor	r27, r27
 ab8:	f0 0d       	add	r31, r0
 aba:	b1 1d       	adc	r27, r1
 abc:	63 9f       	mul	r22, r19
 abe:	aa 27       	eor	r26, r26
 ac0:	f0 0d       	add	r31, r0
 ac2:	b1 1d       	adc	r27, r1
 ac4:	aa 1f       	adc	r26, r26
 ac6:	64 9f       	mul	r22, r20
 ac8:	66 27       	eor	r22, r22
 aca:	b0 0d       	add	r27, r0
 acc:	a1 1d       	adc	r26, r1
 ace:	66 1f       	adc	r22, r22
 ad0:	82 9f       	mul	r24, r18
 ad2:	22 27       	eor	r18, r18
 ad4:	b0 0d       	add	r27, r0
 ad6:	a1 1d       	adc	r26, r1
 ad8:	62 1f       	adc	r22, r18
 ada:	73 9f       	mul	r23, r19
 adc:	b0 0d       	add	r27, r0
 ade:	a1 1d       	adc	r26, r1
 ae0:	62 1f       	adc	r22, r18
 ae2:	83 9f       	mul	r24, r19
 ae4:	a0 0d       	add	r26, r0
 ae6:	61 1d       	adc	r22, r1
 ae8:	22 1f       	adc	r18, r18
 aea:	74 9f       	mul	r23, r20
 aec:	33 27       	eor	r19, r19
 aee:	a0 0d       	add	r26, r0
 af0:	61 1d       	adc	r22, r1
 af2:	23 1f       	adc	r18, r19
 af4:	84 9f       	mul	r24, r20
 af6:	60 0d       	add	r22, r0
 af8:	21 1d       	adc	r18, r1
 afa:	82 2f       	mov	r24, r18
 afc:	76 2f       	mov	r23, r22
 afe:	6a 2f       	mov	r22, r26
 b00:	11 24       	eor	r1, r1
 b02:	9f 57       	subi	r25, 0x7F	; 127
 b04:	50 40       	sbci	r21, 0x00	; 0
 b06:	9a f0       	brmi	.+38     	; 0xb2e <__mulsf3_pse+0x88>
 b08:	f1 f0       	breq	.+60     	; 0xb46 <__mulsf3_pse+0xa0>
 b0a:	88 23       	and	r24, r24
 b0c:	4a f0       	brmi	.+18     	; 0xb20 <__mulsf3_pse+0x7a>
 b0e:	ee 0f       	add	r30, r30
 b10:	ff 1f       	adc	r31, r31
 b12:	bb 1f       	adc	r27, r27
 b14:	66 1f       	adc	r22, r22
 b16:	77 1f       	adc	r23, r23
 b18:	88 1f       	adc	r24, r24
 b1a:	91 50       	subi	r25, 0x01	; 1
 b1c:	50 40       	sbci	r21, 0x00	; 0
 b1e:	a9 f7       	brne	.-22     	; 0xb0a <__mulsf3_pse+0x64>
 b20:	9e 3f       	cpi	r25, 0xFE	; 254
 b22:	51 05       	cpc	r21, r1
 b24:	80 f0       	brcs	.+32     	; 0xb46 <__mulsf3_pse+0xa0>
 b26:	0c 94 ec 04 	jmp	0x9d8	; 0x9d8 <__fp_inf>
 b2a:	0c 94 37 05 	jmp	0xa6e	; 0xa6e <__fp_szero>
 b2e:	5f 3f       	cpi	r21, 0xFF	; 255
 b30:	e4 f3       	brlt	.-8      	; 0xb2a <__mulsf3_pse+0x84>
 b32:	98 3e       	cpi	r25, 0xE8	; 232
 b34:	d4 f3       	brlt	.-12     	; 0xb2a <__mulsf3_pse+0x84>
 b36:	86 95       	lsr	r24
 b38:	77 95       	ror	r23
 b3a:	67 95       	ror	r22
 b3c:	b7 95       	ror	r27
 b3e:	f7 95       	ror	r31
 b40:	e7 95       	ror	r30
 b42:	9f 5f       	subi	r25, 0xFF	; 255
 b44:	c1 f7       	brne	.-16     	; 0xb36 <__mulsf3_pse+0x90>
 b46:	fe 2b       	or	r31, r30
 b48:	88 0f       	add	r24, r24
 b4a:	91 1d       	adc	r25, r1
 b4c:	96 95       	lsr	r25
 b4e:	87 95       	ror	r24
 b50:	97 f9       	bld	r25, 7
 b52:	08 95       	ret

00000b54 <pow>:
 b54:	fa 01       	movw	r30, r20
 b56:	ee 0f       	add	r30, r30
 b58:	ff 1f       	adc	r31, r31
 b5a:	30 96       	adiw	r30, 0x00	; 0
 b5c:	21 05       	cpc	r18, r1
 b5e:	31 05       	cpc	r19, r1
 b60:	a1 f1       	breq	.+104    	; 0xbca <pow+0x76>
 b62:	61 15       	cp	r22, r1
 b64:	71 05       	cpc	r23, r1
 b66:	61 f4       	brne	.+24     	; 0xb80 <pow+0x2c>
 b68:	80 38       	cpi	r24, 0x80	; 128
 b6a:	bf e3       	ldi	r27, 0x3F	; 63
 b6c:	9b 07       	cpc	r25, r27
 b6e:	49 f1       	breq	.+82     	; 0xbc2 <pow+0x6e>
 b70:	68 94       	set
 b72:	90 38       	cpi	r25, 0x80	; 128
 b74:	81 05       	cpc	r24, r1
 b76:	61 f0       	breq	.+24     	; 0xb90 <pow+0x3c>
 b78:	80 38       	cpi	r24, 0x80	; 128
 b7a:	bf ef       	ldi	r27, 0xFF	; 255
 b7c:	9b 07       	cpc	r25, r27
 b7e:	41 f0       	breq	.+16     	; 0xb90 <pow+0x3c>
 b80:	99 23       	and	r25, r25
 b82:	4a f5       	brpl	.+82     	; 0xbd6 <pow+0x82>
 b84:	ff 3f       	cpi	r31, 0xFF	; 255
 b86:	e1 05       	cpc	r30, r1
 b88:	31 05       	cpc	r19, r1
 b8a:	21 05       	cpc	r18, r1
 b8c:	19 f1       	breq	.+70     	; 0xbd4 <pow+0x80>
 b8e:	e8 94       	clt
 b90:	08 94       	sec
 b92:	e7 95       	ror	r30
 b94:	d9 01       	movw	r26, r18
 b96:	aa 23       	and	r26, r26
 b98:	29 f4       	brne	.+10     	; 0xba4 <pow+0x50>
 b9a:	ab 2f       	mov	r26, r27
 b9c:	be 2f       	mov	r27, r30
 b9e:	f8 5f       	subi	r31, 0xF8	; 248
 ba0:	d0 f3       	brcs	.-12     	; 0xb96 <pow+0x42>
 ba2:	10 c0       	rjmp	.+32     	; 0xbc4 <pow+0x70>
 ba4:	ff 5f       	subi	r31, 0xFF	; 255
 ba6:	70 f4       	brcc	.+28     	; 0xbc4 <pow+0x70>
 ba8:	a6 95       	lsr	r26
 baa:	e0 f7       	brcc	.-8      	; 0xba4 <pow+0x50>
 bac:	f7 39       	cpi	r31, 0x97	; 151
 bae:	50 f0       	brcs	.+20     	; 0xbc4 <pow+0x70>
 bb0:	19 f0       	breq	.+6      	; 0xbb8 <pow+0x64>
 bb2:	ff 3a       	cpi	r31, 0xAF	; 175
 bb4:	38 f4       	brcc	.+14     	; 0xbc4 <pow+0x70>
 bb6:	9f 77       	andi	r25, 0x7F	; 127
 bb8:	9f 93       	push	r25
 bba:	0d d0       	rcall	.+26     	; 0xbd6 <pow+0x82>
 bbc:	0f 90       	pop	r0
 bbe:	07 fc       	sbrc	r0, 7
 bc0:	90 58       	subi	r25, 0x80	; 128
 bc2:	08 95       	ret
 bc4:	46 f0       	brts	.+16     	; 0xbd6 <pow+0x82>
 bc6:	0c 94 f2 04 	jmp	0x9e4	; 0x9e4 <__fp_nan>
 bca:	60 e0       	ldi	r22, 0x00	; 0
 bcc:	70 e0       	ldi	r23, 0x00	; 0
 bce:	80 e8       	ldi	r24, 0x80	; 128
 bd0:	9f e3       	ldi	r25, 0x3F	; 63
 bd2:	08 95       	ret
 bd4:	4f e7       	ldi	r20, 0x7F	; 127
 bd6:	9f 77       	andi	r25, 0x7F	; 127
 bd8:	5f 93       	push	r21
 bda:	4f 93       	push	r20
 bdc:	3f 93       	push	r19
 bde:	2f 93       	push	r18
 be0:	0e 94 a5 06 	call	0xd4a	; 0xd4a <log>
 be4:	2f 91       	pop	r18
 be6:	3f 91       	pop	r19
 be8:	4f 91       	pop	r20
 bea:	5f 91       	pop	r21
 bec:	0e 94 3d 05 	call	0xa7a	; 0xa7a <__mulsf3>
 bf0:	0c 94 02 06 	jmp	0xc04	; 0xc04 <exp>
 bf4:	29 f4       	brne	.+10     	; 0xc00 <pow+0xac>
 bf6:	16 f0       	brts	.+4      	; 0xbfc <pow+0xa8>
 bf8:	0c 94 ec 04 	jmp	0x9d8	; 0x9d8 <__fp_inf>
 bfc:	0c 94 36 05 	jmp	0xa6c	; 0xa6c <__fp_zero>
 c00:	0c 94 f2 04 	jmp	0x9e4	; 0x9e4 <__fp_nan>

00000c04 <exp>:
 c04:	0e 94 1c 05 	call	0xa38	; 0xa38 <__fp_splitA>
 c08:	a8 f3       	brcs	.-22     	; 0xbf4 <pow+0xa0>
 c0a:	96 38       	cpi	r25, 0x86	; 134
 c0c:	a0 f7       	brcc	.-24     	; 0xbf6 <pow+0xa2>
 c0e:	07 f8       	bld	r0, 7
 c10:	0f 92       	push	r0
 c12:	e8 94       	clt
 c14:	2b e3       	ldi	r18, 0x3B	; 59
 c16:	3a ea       	ldi	r19, 0xAA	; 170
 c18:	48 eb       	ldi	r20, 0xB8	; 184
 c1a:	5f e7       	ldi	r21, 0x7F	; 127
 c1c:	0e 94 53 05 	call	0xaa6	; 0xaa6 <__mulsf3_pse>
 c20:	0f 92       	push	r0
 c22:	0f 92       	push	r0
 c24:	0f 92       	push	r0
 c26:	4d b7       	in	r20, 0x3d	; 61
 c28:	5e b7       	in	r21, 0x3e	; 62
 c2a:	0f 92       	push	r0
 c2c:	0e 94 ed 06 	call	0xdda	; 0xdda <modf>
 c30:	e8 e7       	ldi	r30, 0x78	; 120
 c32:	f0 e0       	ldi	r31, 0x00	; 0
 c34:	0e 94 34 06 	call	0xc68	; 0xc68 <__fp_powser>
 c38:	4f 91       	pop	r20
 c3a:	5f 91       	pop	r21
 c3c:	ef 91       	pop	r30
 c3e:	ff 91       	pop	r31
 c40:	e5 95       	asr	r30
 c42:	ee 1f       	adc	r30, r30
 c44:	ff 1f       	adc	r31, r31
 c46:	49 f0       	breq	.+18     	; 0xc5a <exp+0x56>
 c48:	fe 57       	subi	r31, 0x7E	; 126
 c4a:	e0 68       	ori	r30, 0x80	; 128
 c4c:	44 27       	eor	r20, r20
 c4e:	ee 0f       	add	r30, r30
 c50:	44 1f       	adc	r20, r20
 c52:	fa 95       	dec	r31
 c54:	e1 f7       	brne	.-8      	; 0xc4e <exp+0x4a>
 c56:	41 95       	neg	r20
 c58:	55 0b       	sbc	r21, r21
 c5a:	0e 94 67 06 	call	0xcce	; 0xcce <ldexp>
 c5e:	0f 90       	pop	r0
 c60:	07 fe       	sbrs	r0, 7
 c62:	0c 94 5b 06 	jmp	0xcb6	; 0xcb6 <inverse>
 c66:	08 95       	ret

00000c68 <__fp_powser>:
 c68:	df 93       	push	r29
 c6a:	cf 93       	push	r28
 c6c:	1f 93       	push	r17
 c6e:	0f 93       	push	r16
 c70:	ff 92       	push	r15
 c72:	ef 92       	push	r14
 c74:	df 92       	push	r13
 c76:	7b 01       	movw	r14, r22
 c78:	8c 01       	movw	r16, r24
 c7a:	68 94       	set
 c7c:	06 c0       	rjmp	.+12     	; 0xc8a <__fp_powser+0x22>
 c7e:	da 2e       	mov	r13, r26
 c80:	ef 01       	movw	r28, r30
 c82:	0e 94 50 05 	call	0xaa0	; 0xaa0 <__mulsf3x>
 c86:	fe 01       	movw	r30, r28
 c88:	e8 94       	clt
 c8a:	a5 91       	lpm	r26, Z+
 c8c:	25 91       	lpm	r18, Z+
 c8e:	35 91       	lpm	r19, Z+
 c90:	45 91       	lpm	r20, Z+
 c92:	55 91       	lpm	r21, Z+
 c94:	a6 f3       	brts	.-24     	; 0xc7e <__fp_powser+0x16>
 c96:	ef 01       	movw	r28, r30
 c98:	0e 94 90 03 	call	0x720	; 0x720 <__addsf3x>
 c9c:	fe 01       	movw	r30, r28
 c9e:	97 01       	movw	r18, r14
 ca0:	a8 01       	movw	r20, r16
 ca2:	da 94       	dec	r13
 ca4:	69 f7       	brne	.-38     	; 0xc80 <__fp_powser+0x18>
 ca6:	df 90       	pop	r13
 ca8:	ef 90       	pop	r14
 caa:	ff 90       	pop	r15
 cac:	0f 91       	pop	r16
 cae:	1f 91       	pop	r17
 cb0:	cf 91       	pop	r28
 cb2:	df 91       	pop	r29
 cb4:	08 95       	ret

00000cb6 <inverse>:
 cb6:	9b 01       	movw	r18, r22
 cb8:	ac 01       	movw	r20, r24
 cba:	60 e0       	ldi	r22, 0x00	; 0
 cbc:	70 e0       	ldi	r23, 0x00	; 0
 cbe:	80 e8       	ldi	r24, 0x80	; 128
 cc0:	9f e3       	ldi	r25, 0x3F	; 63
 cc2:	0c 94 ea 03 	jmp	0x7d4	; 0x7d4 <__divsf3>
 cc6:	0c 94 ec 04 	jmp	0x9d8	; 0x9d8 <__fp_inf>
 cca:	0c 94 21 07 	jmp	0xe42	; 0xe42 <__fp_mpack>

00000cce <ldexp>:
 cce:	0e 94 1c 05 	call	0xa38	; 0xa38 <__fp_splitA>
 cd2:	d8 f3       	brcs	.-10     	; 0xcca <inverse+0x14>
 cd4:	99 23       	and	r25, r25
 cd6:	c9 f3       	breq	.-14     	; 0xcca <inverse+0x14>
 cd8:	94 0f       	add	r25, r20
 cda:	51 1d       	adc	r21, r1
 cdc:	a3 f3       	brvs	.-24     	; 0xcc6 <inverse+0x10>
 cde:	91 50       	subi	r25, 0x01	; 1
 ce0:	50 40       	sbci	r21, 0x00	; 0
 ce2:	94 f0       	brlt	.+36     	; 0xd08 <ldexp+0x3a>
 ce4:	59 f0       	breq	.+22     	; 0xcfc <ldexp+0x2e>
 ce6:	88 23       	and	r24, r24
 ce8:	32 f0       	brmi	.+12     	; 0xcf6 <ldexp+0x28>
 cea:	66 0f       	add	r22, r22
 cec:	77 1f       	adc	r23, r23
 cee:	88 1f       	adc	r24, r24
 cf0:	91 50       	subi	r25, 0x01	; 1
 cf2:	50 40       	sbci	r21, 0x00	; 0
 cf4:	c1 f7       	brne	.-16     	; 0xce6 <ldexp+0x18>
 cf6:	9e 3f       	cpi	r25, 0xFE	; 254
 cf8:	51 05       	cpc	r21, r1
 cfa:	2c f7       	brge	.-54     	; 0xcc6 <inverse+0x10>
 cfc:	88 0f       	add	r24, r24
 cfe:	91 1d       	adc	r25, r1
 d00:	96 95       	lsr	r25
 d02:	87 95       	ror	r24
 d04:	97 f9       	bld	r25, 7
 d06:	08 95       	ret
 d08:	5f 3f       	cpi	r21, 0xFF	; 255
 d0a:	ac f0       	brlt	.+42     	; 0xd36 <ldexp+0x68>
 d0c:	98 3e       	cpi	r25, 0xE8	; 232
 d0e:	9c f0       	brlt	.+38     	; 0xd36 <ldexp+0x68>
 d10:	bb 27       	eor	r27, r27
 d12:	86 95       	lsr	r24
 d14:	77 95       	ror	r23
 d16:	67 95       	ror	r22
 d18:	b7 95       	ror	r27
 d1a:	08 f4       	brcc	.+2      	; 0xd1e <ldexp+0x50>
 d1c:	b1 60       	ori	r27, 0x01	; 1
 d1e:	93 95       	inc	r25
 d20:	c1 f7       	brne	.-16     	; 0xd12 <ldexp+0x44>
 d22:	bb 0f       	add	r27, r27
 d24:	58 f7       	brcc	.-42     	; 0xcfc <ldexp+0x2e>
 d26:	11 f4       	brne	.+4      	; 0xd2c <ldexp+0x5e>
 d28:	60 ff       	sbrs	r22, 0
 d2a:	e8 cf       	rjmp	.-48     	; 0xcfc <ldexp+0x2e>
 d2c:	6f 5f       	subi	r22, 0xFF	; 255
 d2e:	7f 4f       	sbci	r23, 0xFF	; 255
 d30:	8f 4f       	sbci	r24, 0xFF	; 255
 d32:	9f 4f       	sbci	r25, 0xFF	; 255
 d34:	e3 cf       	rjmp	.-58     	; 0xcfc <ldexp+0x2e>
 d36:	0c 94 37 05 	jmp	0xa6e	; 0xa6e <__fp_szero>
 d3a:	16 f0       	brts	.+4      	; 0xd40 <ldexp+0x72>
 d3c:	0c 94 21 07 	jmp	0xe42	; 0xe42 <__fp_mpack>
 d40:	0c 94 f2 04 	jmp	0x9e4	; 0x9e4 <__fp_nan>
 d44:	68 94       	set
 d46:	0c 94 ec 04 	jmp	0x9d8	; 0x9d8 <__fp_inf>

00000d4a <log>:
 d4a:	0e 94 1c 05 	call	0xa38	; 0xa38 <__fp_splitA>
 d4e:	a8 f3       	brcs	.-22     	; 0xd3a <ldexp+0x6c>
 d50:	99 23       	and	r25, r25
 d52:	c1 f3       	breq	.-16     	; 0xd44 <ldexp+0x76>
 d54:	ae f3       	brts	.-22     	; 0xd40 <ldexp+0x72>
 d56:	df 93       	push	r29
 d58:	cf 93       	push	r28
 d5a:	1f 93       	push	r17
 d5c:	0f 93       	push	r16
 d5e:	ff 92       	push	r15
 d60:	c9 2f       	mov	r28, r25
 d62:	dd 27       	eor	r29, r29
 d64:	88 23       	and	r24, r24
 d66:	2a f0       	brmi	.+10     	; 0xd72 <log+0x28>
 d68:	21 97       	sbiw	r28, 0x01	; 1
 d6a:	66 0f       	add	r22, r22
 d6c:	77 1f       	adc	r23, r23
 d6e:	88 1f       	adc	r24, r24
 d70:	da f7       	brpl	.-10     	; 0xd68 <log+0x1e>
 d72:	20 e0       	ldi	r18, 0x00	; 0
 d74:	30 e0       	ldi	r19, 0x00	; 0
 d76:	40 e8       	ldi	r20, 0x80	; 128
 d78:	5f eb       	ldi	r21, 0xBF	; 191
 d7a:	9f e3       	ldi	r25, 0x3F	; 63
 d7c:	88 39       	cpi	r24, 0x98	; 152
 d7e:	20 f0       	brcs	.+8      	; 0xd88 <log+0x3e>
 d80:	80 3e       	cpi	r24, 0xE0	; 224
 d82:	38 f0       	brcs	.+14     	; 0xd92 <log+0x48>
 d84:	21 96       	adiw	r28, 0x01	; 1
 d86:	8f 77       	andi	r24, 0x7F	; 127
 d88:	0e 94 79 03 	call	0x6f2	; 0x6f2 <__addsf3>
 d8c:	e0 ea       	ldi	r30, 0xA0	; 160
 d8e:	f0 e0       	ldi	r31, 0x00	; 0
 d90:	04 c0       	rjmp	.+8      	; 0xd9a <log+0x50>
 d92:	0e 94 79 03 	call	0x6f2	; 0x6f2 <__addsf3>
 d96:	ed ec       	ldi	r30, 0xCD	; 205
 d98:	f0 e0       	ldi	r31, 0x00	; 0
 d9a:	0e 94 34 06 	call	0xc68	; 0xc68 <__fp_powser>
 d9e:	8b 01       	movw	r16, r22
 da0:	be 01       	movw	r22, r28
 da2:	ec 01       	movw	r28, r24
 da4:	fb 2e       	mov	r15, r27
 da6:	6f 57       	subi	r22, 0x7F	; 127
 da8:	71 09       	sbc	r23, r1
 daa:	75 95       	asr	r23
 dac:	77 1f       	adc	r23, r23
 dae:	88 0b       	sbc	r24, r24
 db0:	99 0b       	sbc	r25, r25
 db2:	0e 94 8d 04 	call	0x91a	; 0x91a <__floatsisf>
 db6:	28 e1       	ldi	r18, 0x18	; 24
 db8:	32 e7       	ldi	r19, 0x72	; 114
 dba:	41 e3       	ldi	r20, 0x31	; 49
 dbc:	5f e3       	ldi	r21, 0x3F	; 63
 dbe:	0e 94 50 05 	call	0xaa0	; 0xaa0 <__mulsf3x>
 dc2:	af 2d       	mov	r26, r15
 dc4:	98 01       	movw	r18, r16
 dc6:	ae 01       	movw	r20, r28
 dc8:	ff 90       	pop	r15
 dca:	0f 91       	pop	r16
 dcc:	1f 91       	pop	r17
 dce:	cf 91       	pop	r28
 dd0:	df 91       	pop	r29
 dd2:	0e 94 90 03 	call	0x720	; 0x720 <__addsf3x>
 dd6:	0c 94 03 05 	jmp	0xa06	; 0xa06 <__fp_round>

00000dda <modf>:
 dda:	fa 01       	movw	r30, r20
 ddc:	dc 01       	movw	r26, r24
 dde:	aa 0f       	add	r26, r26
 de0:	bb 1f       	adc	r27, r27
 de2:	9b 01       	movw	r18, r22
 de4:	ac 01       	movw	r20, r24
 de6:	bf 57       	subi	r27, 0x7F	; 127
 de8:	28 f4       	brcc	.+10     	; 0xdf4 <modf+0x1a>
 dea:	22 27       	eor	r18, r18
 dec:	33 27       	eor	r19, r19
 dee:	44 27       	eor	r20, r20
 df0:	50 78       	andi	r21, 0x80	; 128
 df2:	20 c0       	rjmp	.+64     	; 0xe34 <modf+0x5a>
 df4:	b7 51       	subi	r27, 0x17	; 23
 df6:	90 f4       	brcc	.+36     	; 0xe1c <modf+0x42>
 df8:	ab 2f       	mov	r26, r27
 dfa:	00 24       	eor	r0, r0
 dfc:	46 95       	lsr	r20
 dfe:	37 95       	ror	r19
 e00:	27 95       	ror	r18
 e02:	01 1c       	adc	r0, r1
 e04:	a3 95       	inc	r26
 e06:	d2 f3       	brmi	.-12     	; 0xdfc <modf+0x22>
 e08:	00 20       	and	r0, r0
 e0a:	71 f0       	breq	.+28     	; 0xe28 <modf+0x4e>
 e0c:	22 0f       	add	r18, r18
 e0e:	33 1f       	adc	r19, r19
 e10:	44 1f       	adc	r20, r20
 e12:	b3 95       	inc	r27
 e14:	da f3       	brmi	.-10     	; 0xe0c <modf+0x32>
 e16:	0e d0       	rcall	.+28     	; 0xe34 <modf+0x5a>
 e18:	0c 94 78 03 	jmp	0x6f0	; 0x6f0 <__subsf3>
 e1c:	61 30       	cpi	r22, 0x01	; 1
 e1e:	71 05       	cpc	r23, r1
 e20:	a0 e8       	ldi	r26, 0x80	; 128
 e22:	8a 07       	cpc	r24, r26
 e24:	b9 46       	sbci	r27, 0x69	; 105
 e26:	30 f4       	brcc	.+12     	; 0xe34 <modf+0x5a>
 e28:	9b 01       	movw	r18, r22
 e2a:	ac 01       	movw	r20, r24
 e2c:	66 27       	eor	r22, r22
 e2e:	77 27       	eor	r23, r23
 e30:	88 27       	eor	r24, r24
 e32:	90 78       	andi	r25, 0x80	; 128
 e34:	30 96       	adiw	r30, 0x00	; 0
 e36:	21 f0       	breq	.+8      	; 0xe40 <modf+0x66>
 e38:	20 83       	st	Z, r18
 e3a:	31 83       	std	Z+1, r19	; 0x01
 e3c:	42 83       	std	Z+2, r20	; 0x02
 e3e:	53 83       	std	Z+3, r21	; 0x03
 e40:	08 95       	ret

00000e42 <__fp_mpack>:
 e42:	9f 3f       	cpi	r25, 0xFF	; 255
 e44:	31 f0       	breq	.+12     	; 0xe52 <__fp_mpack_finite+0xc>

00000e46 <__fp_mpack_finite>:
 e46:	91 50       	subi	r25, 0x01	; 1
 e48:	20 f4       	brcc	.+8      	; 0xe52 <__fp_mpack_finite+0xc>
 e4a:	87 95       	ror	r24
 e4c:	77 95       	ror	r23
 e4e:	67 95       	ror	r22
 e50:	b7 95       	ror	r27
 e52:	88 0f       	add	r24, r24
 e54:	91 1d       	adc	r25, r1
 e56:	96 95       	lsr	r25
 e58:	87 95       	ror	r24
 e5a:	97 f9       	bld	r25, 7
 e5c:	08 95       	ret

00000e5e <__udivmodqi4>:
 e5e:	99 1b       	sub	r25, r25
 e60:	79 e0       	ldi	r23, 0x09	; 9
 e62:	04 c0       	rjmp	.+8      	; 0xe6c <__udivmodqi4_ep>

00000e64 <__udivmodqi4_loop>:
 e64:	99 1f       	adc	r25, r25
 e66:	96 17       	cp	r25, r22
 e68:	08 f0       	brcs	.+2      	; 0xe6c <__udivmodqi4_ep>
 e6a:	96 1b       	sub	r25, r22

00000e6c <__udivmodqi4_ep>:
 e6c:	88 1f       	adc	r24, r24
 e6e:	7a 95       	dec	r23
 e70:	c9 f7       	brne	.-14     	; 0xe64 <__udivmodqi4_loop>
 e72:	80 95       	com	r24
 e74:	08 95       	ret

00000e76 <__tablejump2__>:
 e76:	ee 0f       	add	r30, r30
 e78:	ff 1f       	adc	r31, r31
 e7a:	05 90       	lpm	r0, Z+
 e7c:	f4 91       	lpm	r31, Z
 e7e:	e0 2d       	mov	r30, r0
 e80:	09 94       	ijmp

00000e82 <__adddi3_s8>:
 e82:	00 24       	eor	r0, r0
 e84:	a7 fd       	sbrc	r26, 7
 e86:	00 94       	com	r0
 e88:	2a 0f       	add	r18, r26
 e8a:	30 1d       	adc	r19, r0
 e8c:	40 1d       	adc	r20, r0
 e8e:	50 1d       	adc	r21, r0
 e90:	60 1d       	adc	r22, r0
 e92:	70 1d       	adc	r23, r0
 e94:	80 1d       	adc	r24, r0
 e96:	90 1d       	adc	r25, r0
 e98:	08 95       	ret

00000e9a <__cmpdi2_s8>:
 e9a:	00 24       	eor	r0, r0
 e9c:	a7 fd       	sbrc	r26, 7
 e9e:	00 94       	com	r0
 ea0:	2a 17       	cp	r18, r26
 ea2:	30 05       	cpc	r19, r0
 ea4:	40 05       	cpc	r20, r0
 ea6:	50 05       	cpc	r21, r0
 ea8:	60 05       	cpc	r22, r0
 eaa:	70 05       	cpc	r23, r0
 eac:	80 05       	cpc	r24, r0
 eae:	90 05       	cpc	r25, r0
 eb0:	08 95       	ret

00000eb2 <_exit>:
 eb2:	f8 94       	cli

00000eb4 <__stop_program>:
 eb4:	ff cf       	rjmp	.-2      	; 0xeb4 <__stop_program>
